
kernel:     file format elf32-littleriscv


Disassembly of section .text:

80000000 <__kernel_start>:
80000000:	f1402273          	csrr	tp,mhartid
80000004:	00005117          	auipc	sp,0x5
80000008:	ffc10113          	addi	sp,sp,-4 # 80005000 <__stack0>
8000000c:	000012b7          	lui	t0,0x1
80000010:	00120313          	addi	t1,tp,1 # 1 <__kernel_start-0x7fffffff>
80000014:	026282b3          	mul	t0,t0,t1
80000018:	00510133          	add	sp,sp,t0
8000001c:	18001073          	csrw	satp,zero
80000020:	01f00f13          	li	t5,31
80000024:	3a0f1073          	csrw	pmpcfg0,t5
80000028:	fff00f93          	li	t6,-1
8000002c:	3b0f9073          	csrw	pmpaddr0,t6
80000030:	300023f3          	csrr	t2,mstatus
80000034:	ffffee37          	lui	t3,0xffffe
80000038:	7ffe0e13          	addi	t3,t3,2047 # ffffe7ff <__mem_end+0x77ffe7ff>
8000003c:	01c3f3b3          	and	t2,t2,t3
80000040:	00001eb7          	lui	t4,0x1
80000044:	800e8e93          	addi	t4,t4,-2048 # 800 <__kernel_start-0x7ffff800>
80000048:	01d3e3b3          	or	t2,t2,t4
8000004c:	30039073          	csrw	mstatus,t2
80000050:	00010f37          	lui	t5,0x10
80000054:	ffff0f13          	addi	t5,t5,-1 # ffff <__kernel_start-0x7fff0001>
80000058:	302f2073          	csrs	medeleg,t5
8000005c:	303f2073          	csrs	mideleg,t5
80000060:	10016073          	csrsi	sstatus,2
80000064:	22200f13          	li	t5,546
80000068:	104f2073          	csrs	sie,t5
8000006c:	00020513          	mv	a0,tp
80000070:	418000ef          	jal	ra,80000488 <next_timer_interrupt>
80000074:	00000f17          	auipc	t5,0x0
80000078:	2dcf0f13          	addi	t5,t5,732 # 80000350 <m_trap>
8000007c:	305f1073          	csrw	mtvec,t5
80000080:	00800f13          	li	t5,8
80000084:	300f2073          	csrs	mstatus,t5
80000088:	08000f13          	li	t5,128
8000008c:	304f2073          	csrs	mie,t5
80000090:	00000297          	auipc	t0,0x0
80000094:	01028293          	addi	t0,t0,16 # 800000a0 <supervisor>
80000098:	34129073          	csrw	mepc,t0
8000009c:	30200073          	mret

800000a0 <supervisor>:
800000a0:	00000317          	auipc	t1,0x0
800000a4:	09030313          	addi	t1,t1,144 # 80000130 <s_trap>
800000a8:	10531073          	csrw	stvec,t1
800000ac:	52d000ef          	jal	ra,80000dd8 <kernel_main>

800000b0 <context_switch>:
800000b0:	00152023          	sw	ra,0(a0)
800000b4:	00252223          	sw	sp,4(a0)
800000b8:	00852423          	sw	s0,8(a0)
800000bc:	00952623          	sw	s1,12(a0)
800000c0:	01252823          	sw	s2,16(a0)
800000c4:	01352a23          	sw	s3,20(a0)
800000c8:	01452c23          	sw	s4,24(a0)
800000cc:	01552e23          	sw	s5,28(a0)
800000d0:	03652023          	sw	s6,32(a0)
800000d4:	03752223          	sw	s7,36(a0)
800000d8:	03852423          	sw	s8,40(a0)
800000dc:	03952623          	sw	s9,44(a0)
800000e0:	03a52823          	sw	s10,48(a0)
800000e4:	03b52a23          	sw	s11,52(a0)
800000e8:	0005a083          	lw	ra,0(a1)
800000ec:	0045a103          	lw	sp,4(a1)
800000f0:	0085a403          	lw	s0,8(a1)
800000f4:	00c5a483          	lw	s1,12(a1)
800000f8:	0105a903          	lw	s2,16(a1)
800000fc:	0145a983          	lw	s3,20(a1)
80000100:	0185aa03          	lw	s4,24(a1)
80000104:	01c5aa83          	lw	s5,28(a1)
80000108:	0205ab03          	lw	s6,32(a1)
8000010c:	0245ab83          	lw	s7,36(a1)
80000110:	0285ac03          	lw	s8,40(a1)
80000114:	02c5ac83          	lw	s9,44(a1)
80000118:	0305ad03          	lw	s10,48(a1)
8000011c:	0345ad83          	lw	s11,52(a1)
80000120:	00008067          	ret
	...

80000130 <s_trap>:
80000130:	f8c10113          	addi	sp,sp,-116
80000134:	00112023          	sw	ra,0(sp)
80000138:	00312223          	sw	gp,4(sp)
8000013c:	00512423          	sw	t0,8(sp)
80000140:	00612623          	sw	t1,12(sp)
80000144:	00712823          	sw	t2,16(sp)
80000148:	01c12a23          	sw	t3,20(sp)
8000014c:	01d12c23          	sw	t4,24(sp)
80000150:	01e12e23          	sw	t5,28(sp)
80000154:	03f12023          	sw	t6,32(sp)
80000158:	02a12223          	sw	a0,36(sp)
8000015c:	02b12423          	sw	a1,40(sp)
80000160:	02c12623          	sw	a2,44(sp)
80000164:	02d12823          	sw	a3,48(sp)
80000168:	02e12a23          	sw	a4,52(sp)
8000016c:	02f12c23          	sw	a5,56(sp)
80000170:	03012e23          	sw	a6,60(sp)
80000174:	05112023          	sw	a7,64(sp)
80000178:	04812223          	sw	s0,68(sp)
8000017c:	04912423          	sw	s1,72(sp)
80000180:	05212623          	sw	s2,76(sp)
80000184:	05312823          	sw	s3,80(sp)
80000188:	05412a23          	sw	s4,84(sp)
8000018c:	05512c23          	sw	s5,88(sp)
80000190:	05612e23          	sw	s6,92(sp)
80000194:	07712023          	sw	s7,96(sp)
80000198:	07812223          	sw	s8,100(sp)
8000019c:	07912423          	sw	s9,104(sp)
800001a0:	07a12623          	sw	s10,108(sp)
800001a4:	07b12823          	sw	s11,112(sp)
800001a8:	515010ef          	jal	ra,80001ebc <kernel_trap>
800001ac:	00012083          	lw	ra,0(sp)
800001b0:	00412183          	lw	gp,4(sp)
800001b4:	00812283          	lw	t0,8(sp)
800001b8:	00c12303          	lw	t1,12(sp)
800001bc:	01012383          	lw	t2,16(sp)
800001c0:	01412e03          	lw	t3,20(sp)
800001c4:	01812e83          	lw	t4,24(sp)
800001c8:	01c12f03          	lw	t5,28(sp)
800001cc:	02012f83          	lw	t6,32(sp)
800001d0:	02412503          	lw	a0,36(sp)
800001d4:	02812583          	lw	a1,40(sp)
800001d8:	02c12603          	lw	a2,44(sp)
800001dc:	03012683          	lw	a3,48(sp)
800001e0:	03412703          	lw	a4,52(sp)
800001e4:	03812783          	lw	a5,56(sp)
800001e8:	03c12803          	lw	a6,60(sp)
800001ec:	04012883          	lw	a7,64(sp)
800001f0:	04412403          	lw	s0,68(sp)
800001f4:	04812483          	lw	s1,72(sp)
800001f8:	04c12903          	lw	s2,76(sp)
800001fc:	05012983          	lw	s3,80(sp)
80000200:	05412a03          	lw	s4,84(sp)
80000204:	05812a83          	lw	s5,88(sp)
80000208:	05c12b03          	lw	s6,92(sp)
8000020c:	06012b83          	lw	s7,96(sp)
80000210:	06412c03          	lw	s8,100(sp)
80000214:	06812c83          	lw	s9,104(sp)
80000218:	06c12d03          	lw	s10,108(sp)
8000021c:	07012d83          	lw	s11,112(sp)
80000220:	07410113          	addi	sp,sp,116
80000224:	10200073          	sret
80000228:	00000013          	nop
8000022c:	00000013          	nop

80000230 <u_trap>:
80000230:	14011173          	csrrw	sp,sscratch,sp
80000234:	f8410113          	addi	sp,sp,-124
80000238:	00112023          	sw	ra,0(sp)
8000023c:	00312223          	sw	gp,4(sp)
80000240:	00512423          	sw	t0,8(sp)
80000244:	00612623          	sw	t1,12(sp)
80000248:	00712823          	sw	t2,16(sp)
8000024c:	01c12a23          	sw	t3,20(sp)
80000250:	01d12c23          	sw	t4,24(sp)
80000254:	01e12e23          	sw	t5,28(sp)
80000258:	03f12023          	sw	t6,32(sp)
8000025c:	02a12223          	sw	a0,36(sp)
80000260:	02b12423          	sw	a1,40(sp)
80000264:	02c12623          	sw	a2,44(sp)
80000268:	02d12823          	sw	a3,48(sp)
8000026c:	02e12a23          	sw	a4,52(sp)
80000270:	02f12c23          	sw	a5,56(sp)
80000274:	03012e23          	sw	a6,60(sp)
80000278:	05112023          	sw	a7,64(sp)
8000027c:	04812223          	sw	s0,68(sp)
80000280:	04912423          	sw	s1,72(sp)
80000284:	05212623          	sw	s2,76(sp)
80000288:	05312823          	sw	s3,80(sp)
8000028c:	05412a23          	sw	s4,84(sp)
80000290:	05512c23          	sw	s5,88(sp)
80000294:	05612e23          	sw	s6,92(sp)
80000298:	07712023          	sw	s7,96(sp)
8000029c:	07812223          	sw	s8,100(sp)
800002a0:	07912423          	sw	s9,104(sp)
800002a4:	07a12623          	sw	s10,108(sp)
800002a8:	07b12823          	sw	s11,112(sp)
800002ac:	14002573          	csrr	a0,sscratch
800002b0:	06a12a23          	sw	a0,116(sp)
800002b4:	14102573          	csrr	a0,sepc
800002b8:	06a12c23          	sw	a0,120(sp)
800002bc:	559010ef          	jal	ra,80002014 <user_trap>

800002c0 <u_trap_ret>:
800002c0:	00050113          	mv	sp,a0
800002c4:	07812503          	lw	a0,120(sp)
800002c8:	14151073          	csrw	sepc,a0
800002cc:	00012083          	lw	ra,0(sp)
800002d0:	00412183          	lw	gp,4(sp)
800002d4:	00812283          	lw	t0,8(sp)
800002d8:	00c12303          	lw	t1,12(sp)
800002dc:	01012383          	lw	t2,16(sp)
800002e0:	01412e03          	lw	t3,20(sp)
800002e4:	01812e83          	lw	t4,24(sp)
800002e8:	01c12f03          	lw	t5,28(sp)
800002ec:	02012f83          	lw	t6,32(sp)
800002f0:	02412503          	lw	a0,36(sp)
800002f4:	02812583          	lw	a1,40(sp)
800002f8:	02c12603          	lw	a2,44(sp)
800002fc:	03012683          	lw	a3,48(sp)
80000300:	03412703          	lw	a4,52(sp)
80000304:	03812783          	lw	a5,56(sp)
80000308:	03c12803          	lw	a6,60(sp)
8000030c:	04012883          	lw	a7,64(sp)
80000310:	04412403          	lw	s0,68(sp)
80000314:	04812483          	lw	s1,72(sp)
80000318:	04c12903          	lw	s2,76(sp)
8000031c:	05012983          	lw	s3,80(sp)
80000320:	05412a03          	lw	s4,84(sp)
80000324:	05812a83          	lw	s5,88(sp)
80000328:	05c12b03          	lw	s6,92(sp)
8000032c:	06012b83          	lw	s7,96(sp)
80000330:	06412c03          	lw	s8,100(sp)
80000334:	06812c83          	lw	s9,104(sp)
80000338:	06c12d03          	lw	s10,108(sp)
8000033c:	07012d83          	lw	s11,112(sp)
80000340:	07412103          	lw	sp,116(sp)
80000344:	10200073          	sret
80000348:	00000013          	nop
8000034c:	00000013          	nop

80000350 <m_trap>:
80000350:	fe010113          	addi	sp,sp,-32
80000354:	00a12023          	sw	a0,0(sp)
80000358:	00b12223          	sw	a1,4(sp)
8000035c:	00c12423          	sw	a2,8(sp)
80000360:	00d12623          	sw	a3,12(sp)
80000364:	00e12823          	sw	a4,16(sp)
80000368:	00f12a23          	sw	a5,20(sp)
8000036c:	01012c23          	sw	a6,24(sp)
80000370:	01112e23          	sw	a7,28(sp)
80000374:	00008893          	mv	a7,ra
80000378:	00020513          	mv	a0,tp
8000037c:	10c000ef          	jal	ra,80000488 <next_timer_interrupt>
80000380:	00088093          	mv	ra,a7
80000384:	00012503          	lw	a0,0(sp)
80000388:	00012023          	sw	zero,0(sp)
8000038c:	00412583          	lw	a1,4(sp)
80000390:	00012223          	sw	zero,4(sp)
80000394:	00812603          	lw	a2,8(sp)
80000398:	00012423          	sw	zero,8(sp)
8000039c:	00c12683          	lw	a3,12(sp)
800003a0:	00012623          	sw	zero,12(sp)
800003a4:	01012703          	lw	a4,16(sp)
800003a8:	00012823          	sw	zero,16(sp)
800003ac:	01412783          	lw	a5,20(sp)
800003b0:	00012a23          	sw	zero,20(sp)
800003b4:	01812803          	lw	a6,24(sp)
800003b8:	00012c23          	sw	zero,24(sp)
800003bc:	01c12883          	lw	a7,28(sp)
800003c0:	00012e23          	sw	zero,28(sp)
800003c4:	02010113          	addi	sp,sp,32
800003c8:	00200593          	li	a1,2
800003cc:	14459073          	csrw	sip,a1
800003d0:	30200073          	mret

800003d4 <get_pte>:
800003d4:	ff010113          	addi	sp,sp,-16
800003d8:	00112623          	sw	ra,12(sp)
800003dc:	00812423          	sw	s0,8(sp)
800003e0:	00912223          	sw	s1,4(sp)
800003e4:	01212023          	sw	s2,0(sp)
800003e8:	01010413          	addi	s0,sp,16
800003ec:	00058493          	mv	s1,a1
800003f0:	0165d793          	srli	a5,a1,0x16
800003f4:	00279793          	slli	a5,a5,0x2
800003f8:	00f50933          	add	s2,a0,a5
800003fc:	00092783          	lw	a5,0(s2)
80000400:	0017f793          	andi	a5,a5,1
80000404:	02079063          	bnez	a5,80000424 <get_pte+0x50>
80000408:	06060c63          	beqz	a2,80000480 <get_pte+0xac>
8000040c:	4ec000ef          	jal	ra,800008f8 <alloc_page>
80000410:	04050863          	beqz	a0,80000460 <get_pte+0x8c>
80000414:	00c55793          	srli	a5,a0,0xc
80000418:	00a79793          	slli	a5,a5,0xa
8000041c:	0017e793          	ori	a5,a5,1
80000420:	00f92023          	sw	a5,0(s2)
80000424:	00092783          	lw	a5,0(s2)
80000428:	00a7d793          	srli	a5,a5,0xa
8000042c:	00c79793          	slli	a5,a5,0xc
80000430:	00000513          	li	a0,0
80000434:	00078a63          	beqz	a5,80000448 <get_pte+0x74>
80000438:	00c4d513          	srli	a0,s1,0xc
8000043c:	3ff57513          	andi	a0,a0,1023
80000440:	00251513          	slli	a0,a0,0x2
80000444:	00a78533          	add	a0,a5,a0
80000448:	00c12083          	lw	ra,12(sp)
8000044c:	00812403          	lw	s0,8(sp)
80000450:	00412483          	lw	s1,4(sp)
80000454:	00012903          	lw	s2,0(sp)
80000458:	01010113          	addi	sp,sp,16
8000045c:	00008067          	ret
80000460:	03800613          	li	a2,56
80000464:	00003597          	auipc	a1,0x3
80000468:	b9c58593          	addi	a1,a1,-1124 # 80003000 <__text_end>
8000046c:	00003517          	auipc	a0,0x3
80000470:	b9c50513          	addi	a0,a0,-1124 # 80003008 <__text_end+0x8>
80000474:	754000ef          	jal	ra,80000bc8 <printf>
80000478:	10017073          	csrci	sstatus,2
8000047c:	0000006f          	j	8000047c <get_pte+0xa8>
80000480:	00000513          	li	a0,0
80000484:	fc5ff06f          	j	80000448 <get_pte+0x74>

80000488 <next_timer_interrupt>:
80000488:	ff010113          	addi	sp,sp,-16
8000048c:	00812623          	sw	s0,12(sp)
80000490:	01010413          	addi	s0,sp,16
80000494:	004017b7          	lui	a5,0x401
80000498:	80078793          	addi	a5,a5,-2048 # 400800 <__kernel_start-0x7fbff800>
8000049c:	00f50533          	add	a0,a0,a5
800004a0:	00351513          	slli	a0,a0,0x3
800004a4:	0200c7b7          	lui	a5,0x200c
800004a8:	ff87a783          	lw	a5,-8(a5) # 200bff8 <__kernel_start-0x7dff4008>
800004ac:	004c5737          	lui	a4,0x4c5
800004b0:	b4070713          	addi	a4,a4,-1216 # 4c4b40 <__kernel_start-0x7fb3b4c0>
800004b4:	00e787b3          	add	a5,a5,a4
800004b8:	00f52023          	sw	a5,0(a0)
800004bc:	08000793          	li	a5,128
800004c0:	3007a073          	csrs	mstatus,a5
800004c4:	00c12403          	lw	s0,12(sp)
800004c8:	01010113          	addi	sp,sp,16
800004cc:	00008067          	ret

800004d0 <init_external_interrupts>:
800004d0:	ff010113          	addi	sp,sp,-16
800004d4:	00812623          	sw	s0,12(sp)
800004d8:	01010413          	addi	s0,sp,16
800004dc:	0c0007b7          	lui	a5,0xc000
800004e0:	00100713          	li	a4,1
800004e4:	02e7a423          	sw	a4,40(a5) # c000028 <__kernel_start-0x73ffffd8>
800004e8:	00c12403          	lw	s0,12(sp)
800004ec:	01010113          	addi	sp,sp,16
800004f0:	00008067          	ret

800004f4 <init_external_irqs_in_cpu>:
800004f4:	ff010113          	addi	sp,sp,-16
800004f8:	00812623          	sw	s0,12(sp)
800004fc:	01010413          	addi	s0,sp,16
80000500:	00851713          	slli	a4,a0,0x8
80000504:	0c0027b7          	lui	a5,0xc002
80000508:	00e787b3          	add	a5,a5,a4
8000050c:	40000713          	li	a4,1024
80000510:	08e7a023          	sw	a4,128(a5) # c002080 <__kernel_start-0x73ffdf80>
80000514:	00d51513          	slli	a0,a0,0xd
80000518:	0c2017b7          	lui	a5,0xc201
8000051c:	00a787b3          	add	a5,a5,a0
80000520:	0007a023          	sw	zero,0(a5) # c201000 <__kernel_start-0x73dff000>
80000524:	00c12403          	lw	s0,12(sp)
80000528:	01010113          	addi	sp,sp,16
8000052c:	00008067          	ret

80000530 <enable_paging>:
80000530:	ff010113          	addi	sp,sp,-16
80000534:	00812623          	sw	s0,12(sp)
80000538:	01010413          	addi	s0,sp,16
8000053c:	00004797          	auipc	a5,0x4
80000540:	9c47a783          	lw	a5,-1596(a5) # 80003f00 <kernel_pgtbl>
80000544:	12000073          	sfence.vma
80000548:	00c7d793          	srli	a5,a5,0xc
8000054c:	80000737          	lui	a4,0x80000
80000550:	00e7e7b3          	or	a5,a5,a4
80000554:	18079073          	csrw	satp,a5
80000558:	12000073          	sfence.vma
8000055c:	00c12403          	lw	s0,12(sp)
80000560:	01010113          	addi	sp,sp,16
80000564:	00008067          	ret

80000568 <map_page>:
80000568:	ff010113          	addi	sp,sp,-16
8000056c:	00112623          	sw	ra,12(sp)
80000570:	00812423          	sw	s0,8(sp)
80000574:	00912223          	sw	s1,4(sp)
80000578:	01212023          	sw	s2,0(sp)
8000057c:	01010413          	addi	s0,sp,16
80000580:	00060493          	mv	s1,a2
80000584:	00068913          	mv	s2,a3
80000588:	00100613          	li	a2,1
8000058c:	e49ff0ef          	jal	ra,800003d4 <get_pte>
80000590:	00c4d493          	srli	s1,s1,0xc
80000594:	00a49493          	slli	s1,s1,0xa
80000598:	0124e4b3          	or	s1,s1,s2
8000059c:	0014e493          	ori	s1,s1,1
800005a0:	00952023          	sw	s1,0(a0)
800005a4:	00c12083          	lw	ra,12(sp)
800005a8:	00812403          	lw	s0,8(sp)
800005ac:	00412483          	lw	s1,4(sp)
800005b0:	00012903          	lw	s2,0(sp)
800005b4:	01010113          	addi	sp,sp,16
800005b8:	00008067          	ret

800005bc <unmap_page>:
800005bc:	ff010113          	addi	sp,sp,-16
800005c0:	00112623          	sw	ra,12(sp)
800005c4:	00812423          	sw	s0,8(sp)
800005c8:	00912223          	sw	s1,4(sp)
800005cc:	01010413          	addi	s0,sp,16
800005d0:	00060493          	mv	s1,a2
800005d4:	00000613          	li	a2,0
800005d8:	dfdff0ef          	jal	ra,800003d4 <get_pte>
800005dc:	00050c63          	beqz	a0,800005f4 <unmap_page+0x38>
800005e0:	00052783          	lw	a5,0(a0)
800005e4:	0017f713          	andi	a4,a5,1
800005e8:	00070663          	beqz	a4,800005f4 <unmap_page+0x38>
800005ec:	00052023          	sw	zero,0(a0)
800005f0:	00049c63          	bnez	s1,80000608 <unmap_page+0x4c>
800005f4:	00c12083          	lw	ra,12(sp)
800005f8:	00812403          	lw	s0,8(sp)
800005fc:	00412483          	lw	s1,4(sp)
80000600:	01010113          	addi	sp,sp,16
80000604:	00008067          	ret
80000608:	00a7d513          	srli	a0,a5,0xa
8000060c:	00c51513          	slli	a0,a0,0xc
80000610:	33c000ef          	jal	ra,8000094c <free_page>
80000614:	fe1ff06f          	j	800005f4 <unmap_page+0x38>

80000618 <va2kernel_address>:
80000618:	ff010113          	addi	sp,sp,-16
8000061c:	00112623          	sw	ra,12(sp)
80000620:	00812423          	sw	s0,8(sp)
80000624:	00912223          	sw	s1,4(sp)
80000628:	01010413          	addi	s0,sp,16
8000062c:	00058493          	mv	s1,a1
80000630:	00000613          	li	a2,0
80000634:	da1ff0ef          	jal	ra,800003d4 <get_pte>
80000638:	02050663          	beqz	a0,80000664 <va2kernel_address+0x4c>
8000063c:	00052503          	lw	a0,0(a0)
80000640:	00a55513          	srli	a0,a0,0xa
80000644:	00c51513          	slli	a0,a0,0xc
80000648:	3ff4f593          	andi	a1,s1,1023
8000064c:	00b50533          	add	a0,a0,a1
80000650:	00c12083          	lw	ra,12(sp)
80000654:	00812403          	lw	s0,8(sp)
80000658:	00412483          	lw	s1,4(sp)
8000065c:	01010113          	addi	sp,sp,16
80000660:	00008067          	ret
80000664:	06000613          	li	a2,96
80000668:	00003597          	auipc	a1,0x3
8000066c:	99858593          	addi	a1,a1,-1640 # 80003000 <__text_end>
80000670:	00003517          	auipc	a0,0x3
80000674:	9bc50513          	addi	a0,a0,-1604 # 8000302c <__text_end+0x2c>
80000678:	550000ef          	jal	ra,80000bc8 <printf>
8000067c:	10017073          	csrci	sstatus,2
80000680:	0000006f          	j	80000680 <va2kernel_address+0x68>

80000684 <map_kernel_memory>:
80000684:	fe010113          	addi	sp,sp,-32
80000688:	00112e23          	sw	ra,28(sp)
8000068c:	00812c23          	sw	s0,24(sp)
80000690:	00912a23          	sw	s1,20(sp)
80000694:	01212823          	sw	s2,16(sp)
80000698:	01312623          	sw	s3,12(sp)
8000069c:	02010413          	addi	s0,sp,32
800006a0:	00050493          	mv	s1,a0
800006a4:	00000997          	auipc	s3,0x0
800006a8:	95c98993          	addi	s3,s3,-1700 # 80000000 <__kernel_start>
800006ac:	00003917          	auipc	s2,0x3
800006b0:	95490913          	addi	s2,s2,-1708 # 80003000 <__text_end>
800006b4:	00098593          	mv	a1,s3
800006b8:	00003517          	auipc	a0,0x3
800006bc:	99850513          	addi	a0,a0,-1640 # 80003050 <__text_end+0x50>
800006c0:	508000ef          	jal	ra,80000bc8 <printf>
800006c4:	00090593          	mv	a1,s2
800006c8:	00003517          	auipc	a0,0x3
800006cc:	99c50513          	addi	a0,a0,-1636 # 80003064 <__text_end+0x64>
800006d0:	4f8000ef          	jal	ra,80000bc8 <printf>
800006d4:	00600713          	li	a4,6
800006d8:	000016b7          	lui	a3,0x1
800006dc:	10000637          	lui	a2,0x10000
800006e0:	100005b7          	lui	a1,0x10000
800006e4:	00048513          	mv	a0,s1
800006e8:	37d010ef          	jal	ra,80002264 <map_region>
800006ec:	00600713          	li	a4,6
800006f0:	000016b7          	lui	a3,0x1
800006f4:	10001637          	lui	a2,0x10001
800006f8:	100015b7          	lui	a1,0x10001
800006fc:	00048513          	mv	a0,s1
80000700:	365010ef          	jal	ra,80002264 <map_region>
80000704:	00600713          	li	a4,6
80000708:	004006b7          	lui	a3,0x400
8000070c:	0c000637          	lui	a2,0xc000
80000710:	0c0005b7          	lui	a1,0xc000
80000714:	00048513          	mv	a0,s1
80000718:	34d010ef          	jal	ra,80002264 <map_region>
8000071c:	00a00713          	li	a4,10
80000720:	413906b3          	sub	a3,s2,s3
80000724:	00098613          	mv	a2,s3
80000728:	00098593          	mv	a1,s3
8000072c:	00048513          	mv	a0,s1
80000730:	335010ef          	jal	ra,80002264 <map_region>
80000734:	00600713          	li	a4,6
80000738:	08000697          	auipc	a3,0x8000
8000073c:	8c868693          	addi	a3,a3,-1848 # 88000000 <__mem_end>
80000740:	412686b3          	sub	a3,a3,s2
80000744:	00090613          	mv	a2,s2
80000748:	00090593          	mv	a1,s2
8000074c:	00048513          	mv	a0,s1
80000750:	315010ef          	jal	ra,80002264 <map_region>
80000754:	01c12083          	lw	ra,28(sp)
80000758:	01812403          	lw	s0,24(sp)
8000075c:	01412483          	lw	s1,20(sp)
80000760:	01012903          	lw	s2,16(sp)
80000764:	00c12983          	lw	s3,12(sp)
80000768:	02010113          	addi	sp,sp,32
8000076c:	00008067          	ret

80000770 <console_init>:
80000770:	ff010113          	addi	sp,sp,-16
80000774:	00812623          	sw	s0,12(sp)
80000778:	01010413          	addi	s0,sp,16
8000077c:	00100793          	li	a5,1
80000780:	00f78023          	sb	a5,0(a5)
80000784:	00c12403          	lw	s0,12(sp)
80000788:	01010113          	addi	sp,sp,16
8000078c:	00008067          	ret

80000790 <console_putc>:
80000790:	ff010113          	addi	sp,sp,-16
80000794:	00812623          	sw	s0,12(sp)
80000798:	01010413          	addi	s0,sp,16
8000079c:	100007b7          	lui	a5,0x10000
800007a0:	0057c783          	lbu	a5,5(a5) # 10000005 <__kernel_start-0x6ffffffb>
800007a4:	0207f793          	andi	a5,a5,32
800007a8:	00078063          	beqz	a5,800007a8 <console_putc+0x18>
800007ac:	100007b7          	lui	a5,0x10000
800007b0:	00a78023          	sb	a0,0(a5) # 10000000 <__kernel_start-0x70000000>
800007b4:	00c12403          	lw	s0,12(sp)
800007b8:	01010113          	addi	sp,sp,16
800007bc:	00008067          	ret

800007c0 <console_puts>:
800007c0:	ff010113          	addi	sp,sp,-16
800007c4:	00112623          	sw	ra,12(sp)
800007c8:	00812423          	sw	s0,8(sp)
800007cc:	00912223          	sw	s1,4(sp)
800007d0:	01010413          	addi	s0,sp,16
800007d4:	00050493          	mv	s1,a0
800007d8:	00003517          	auipc	a0,0x3
800007dc:	72c50513          	addi	a0,a0,1836 # 80003f04 <console_lock>
800007e0:	764000ef          	jal	ra,80000f44 <acquire>
800007e4:	0004c503          	lbu	a0,0(s1)
800007e8:	00050a63          	beqz	a0,800007fc <console_puts+0x3c>
800007ec:	00148493          	addi	s1,s1,1
800007f0:	fa1ff0ef          	jal	ra,80000790 <console_putc>
800007f4:	0004c503          	lbu	a0,0(s1)
800007f8:	fe051ae3          	bnez	a0,800007ec <console_puts+0x2c>
800007fc:	00003517          	auipc	a0,0x3
80000800:	70850513          	addi	a0,a0,1800 # 80003f04 <console_lock>
80000804:	784000ef          	jal	ra,80000f88 <release>
80000808:	00c12083          	lw	ra,12(sp)
8000080c:	00812403          	lw	s0,8(sp)
80000810:	00412483          	lw	s1,4(sp)
80000814:	01010113          	addi	sp,sp,16
80000818:	00008067          	ret

8000081c <console_read_char>:
8000081c:	ff010113          	addi	sp,sp,-16
80000820:	00112623          	sw	ra,12(sp)
80000824:	00812423          	sw	s0,8(sp)
80000828:	00912223          	sw	s1,4(sp)
8000082c:	01010413          	addi	s0,sp,16
80000830:	00003517          	auipc	a0,0x3
80000834:	6d450513          	addi	a0,a0,1748 # 80003f04 <console_lock>
80000838:	70c000ef          	jal	ra,80000f44 <acquire>
8000083c:	100007b7          	lui	a5,0x10000
80000840:	0057c483          	lbu	s1,5(a5) # 10000005 <__kernel_start-0x6ffffffb>
80000844:	0014f493          	andi	s1,s1,1
80000848:	00048463          	beqz	s1,80000850 <console_read_char+0x34>
8000084c:	0007c483          	lbu	s1,0(a5)
80000850:	00003517          	auipc	a0,0x3
80000854:	6b450513          	addi	a0,a0,1716 # 80003f04 <console_lock>
80000858:	730000ef          	jal	ra,80000f88 <release>
8000085c:	00048513          	mv	a0,s1
80000860:	00c12083          	lw	ra,12(sp)
80000864:	00812403          	lw	s0,8(sp)
80000868:	00412483          	lw	s1,4(sp)
8000086c:	01010113          	addi	sp,sp,16
80000870:	00008067          	ret

80000874 <efs_file>:
80000874:	fe010113          	addi	sp,sp,-32
80000878:	00112e23          	sw	ra,28(sp)
8000087c:	00812c23          	sw	s0,24(sp)
80000880:	00912a23          	sw	s1,20(sp)
80000884:	01212823          	sw	s2,16(sp)
80000888:	01312623          	sw	s3,12(sp)
8000088c:	02010413          	addi	s0,sp,32
80000890:	00050993          	mv	s3,a0
80000894:	00003517          	auipc	a0,0x3
80000898:	c2c52503          	lw	a0,-980(a0) # 800034c0 <efs_files_table>
8000089c:	04050063          	beqz	a0,800008dc <efs_file+0x68>
800008a0:	00003497          	auipc	s1,0x3
800008a4:	c3048493          	addi	s1,s1,-976 # 800034d0 <efs_files_table+0x10>
800008a8:	00000913          	li	s2,0
800008ac:	00098593          	mv	a1,s3
800008b0:	2d4000ef          	jal	ra,80000b84 <strcmp>
800008b4:	00050c63          	beqz	a0,800008cc <efs_file+0x58>
800008b8:	00190913          	addi	s2,s2,1
800008bc:	01048493          	addi	s1,s1,16
800008c0:	ff04a503          	lw	a0,-16(s1)
800008c4:	fe0514e3          	bnez	a0,800008ac <efs_file+0x38>
800008c8:	0140006f          	j	800008dc <efs_file+0x68>
800008cc:	00491913          	slli	s2,s2,0x4
800008d0:	00003517          	auipc	a0,0x3
800008d4:	bf050513          	addi	a0,a0,-1040 # 800034c0 <efs_files_table>
800008d8:	00a90533          	add	a0,s2,a0
800008dc:	01c12083          	lw	ra,28(sp)
800008e0:	01812403          	lw	s0,24(sp)
800008e4:	01412483          	lw	s1,20(sp)
800008e8:	01012903          	lw	s2,16(sp)
800008ec:	00c12983          	lw	s3,12(sp)
800008f0:	02010113          	addi	sp,sp,32
800008f4:	00008067          	ret

800008f8 <alloc_page>:
800008f8:	ff010113          	addi	sp,sp,-16
800008fc:	00112623          	sw	ra,12(sp)
80000900:	00812423          	sw	s0,8(sp)
80000904:	00912223          	sw	s1,4(sp)
80000908:	01010413          	addi	s0,sp,16
8000090c:	00003497          	auipc	s1,0x3
80000910:	6004a483          	lw	s1,1536(s1) # 80003f0c <free_list>
80000914:	02048063          	beqz	s1,80000934 <alloc_page+0x3c>
80000918:	0004a783          	lw	a5,0(s1)
8000091c:	00003717          	auipc	a4,0x3
80000920:	5ef72823          	sw	a5,1520(a4) # 80003f0c <free_list>
80000924:	00001637          	lui	a2,0x1
80000928:	00000593          	li	a1,0
8000092c:	00048513          	mv	a0,s1
80000930:	168000ef          	jal	ra,80000a98 <memset>
80000934:	00048513          	mv	a0,s1
80000938:	00c12083          	lw	ra,12(sp)
8000093c:	00812403          	lw	s0,8(sp)
80000940:	00412483          	lw	s1,4(sp)
80000944:	01010113          	addi	sp,sp,16
80000948:	00008067          	ret

8000094c <free_page>:
8000094c:	ff010113          	addi	sp,sp,-16
80000950:	00112623          	sw	ra,12(sp)
80000954:	00812423          	sw	s0,8(sp)
80000958:	01010413          	addi	s0,sp,16
8000095c:	00050693          	mv	a3,a0
80000960:	c0057793          	andi	a5,a0,-1024
80000964:	02f51e63          	bne	a0,a5,800009a0 <free_page+0x54>
80000968:	00008797          	auipc	a5,0x8
8000096c:	69878793          	addi	a5,a5,1688 # 80009000 <__kernel_end>
80000970:	00f56863          	bltu	a0,a5,80000980 <free_page+0x34>
80000974:	07fff797          	auipc	a5,0x7fff
80000978:	68c78793          	addi	a5,a5,1676 # 88000000 <__mem_end>
8000097c:	04a7f263          	bgeu	a5,a0,800009c0 <free_page+0x74>
80000980:	02300613          	li	a2,35
80000984:	00002597          	auipc	a1,0x2
80000988:	70c58593          	addi	a1,a1,1804 # 80003090 <__text_end+0x90>
8000098c:	00002517          	auipc	a0,0x2
80000990:	74050513          	addi	a0,a0,1856 # 800030cc <__text_end+0xcc>
80000994:	234000ef          	jal	ra,80000bc8 <printf>
80000998:	10017073          	csrci	sstatus,2
8000099c:	0000006f          	j	8000099c <free_page+0x50>
800009a0:	02000613          	li	a2,32
800009a4:	00002597          	auipc	a1,0x2
800009a8:	6ec58593          	addi	a1,a1,1772 # 80003090 <__text_end+0x90>
800009ac:	00002517          	auipc	a0,0x2
800009b0:	6f050513          	addi	a0,a0,1776 # 8000309c <__text_end+0x9c>
800009b4:	214000ef          	jal	ra,80000bc8 <printf>
800009b8:	10017073          	csrci	sstatus,2
800009bc:	0000006f          	j	800009bc <free_page+0x70>
800009c0:	00003797          	auipc	a5,0x3
800009c4:	54c78793          	addi	a5,a5,1356 # 80003f0c <free_list>
800009c8:	0007a703          	lw	a4,0(a5)
800009cc:	00e52023          	sw	a4,0(a0)
800009d0:	00a7a023          	sw	a0,0(a5)
800009d4:	00003717          	auipc	a4,0x3
800009d8:	53470713          	addi	a4,a4,1332 # 80003f08 <free_pages>
800009dc:	00072783          	lw	a5,0(a4)
800009e0:	00178793          	addi	a5,a5,1
800009e4:	00f72023          	sw	a5,0(a4)
800009e8:	00c12083          	lw	ra,12(sp)
800009ec:	00812403          	lw	s0,8(sp)
800009f0:	01010113          	addi	sp,sp,16
800009f4:	00008067          	ret

800009f8 <init_kalloc>:
800009f8:	fe010113          	addi	sp,sp,-32
800009fc:	00112e23          	sw	ra,28(sp)
80000a00:	00812c23          	sw	s0,24(sp)
80000a04:	00912a23          	sw	s1,20(sp)
80000a08:	01212823          	sw	s2,16(sp)
80000a0c:	01312623          	sw	s3,12(sp)
80000a10:	02010413          	addi	s0,sp,32
80000a14:	00002517          	auipc	a0,0x2
80000a18:	6e850513          	addi	a0,a0,1768 # 800030fc <__text_end+0xfc>
80000a1c:	1ac000ef          	jal	ra,80000bc8 <printf>
80000a20:	07ffe717          	auipc	a4,0x7ffe
80000a24:	5e070713          	addi	a4,a4,1504 # 87fff000 <__kernel_end+0x7ff6000>
80000a28:	00008797          	auipc	a5,0x8
80000a2c:	5d878793          	addi	a5,a5,1496 # 80009000 <__kernel_end>
80000a30:	02f76063          	bltu	a4,a5,80000a50 <init_kalloc+0x58>
80000a34:	00070493          	mv	s1,a4
80000a38:	fffff9b7          	lui	s3,0xfffff
80000a3c:	00078913          	mv	s2,a5
80000a40:	00048513          	mv	a0,s1
80000a44:	f09ff0ef          	jal	ra,8000094c <free_page>
80000a48:	013484b3          	add	s1,s1,s3
80000a4c:	ff24fae3          	bgeu	s1,s2,80000a40 <init_kalloc+0x48>
80000a50:	07fff717          	auipc	a4,0x7fff
80000a54:	5b070713          	addi	a4,a4,1456 # 88000000 <__mem_end>
80000a58:	00008697          	auipc	a3,0x8
80000a5c:	5a868693          	addi	a3,a3,1448 # 80009000 <__kernel_end>
80000a60:	00003617          	auipc	a2,0x3
80000a64:	4ac62603          	lw	a2,1196(a2) # 80003f0c <free_list>
80000a68:	00003597          	auipc	a1,0x3
80000a6c:	4a05a583          	lw	a1,1184(a1) # 80003f08 <free_pages>
80000a70:	00002517          	auipc	a0,0x2
80000a74:	6b450513          	addi	a0,a0,1716 # 80003124 <__text_end+0x124>
80000a78:	150000ef          	jal	ra,80000bc8 <printf>
80000a7c:	01c12083          	lw	ra,28(sp)
80000a80:	01812403          	lw	s0,24(sp)
80000a84:	01412483          	lw	s1,20(sp)
80000a88:	01012903          	lw	s2,16(sp)
80000a8c:	00c12983          	lw	s3,12(sp)
80000a90:	02010113          	addi	sp,sp,32
80000a94:	00008067          	ret

80000a98 <memset>:
80000a98:	ff010113          	addi	sp,sp,-16
80000a9c:	00812623          	sw	s0,12(sp)
80000aa0:	01010413          	addi	s0,sp,16
80000aa4:	00060c63          	beqz	a2,80000abc <memset+0x24>
80000aa8:	00c50633          	add	a2,a0,a2
80000aac:	00050793          	mv	a5,a0
80000ab0:	00178793          	addi	a5,a5,1
80000ab4:	feb78fa3          	sb	a1,-1(a5)
80000ab8:	fef61ce3          	bne	a2,a5,80000ab0 <memset+0x18>
80000abc:	00c12403          	lw	s0,12(sp)
80000ac0:	01010113          	addi	sp,sp,16
80000ac4:	00008067          	ret

80000ac8 <memcpy>:
80000ac8:	ff010113          	addi	sp,sp,-16
80000acc:	00812623          	sw	s0,12(sp)
80000ad0:	01010413          	addi	s0,sp,16
80000ad4:	02060063          	beqz	a2,80000af4 <memcpy+0x2c>
80000ad8:	00c50633          	add	a2,a0,a2
80000adc:	00050793          	mv	a5,a0
80000ae0:	00158593          	addi	a1,a1,1
80000ae4:	00178793          	addi	a5,a5,1
80000ae8:	fff5c703          	lbu	a4,-1(a1)
80000aec:	fee78fa3          	sb	a4,-1(a5)
80000af0:	fef618e3          	bne	a2,a5,80000ae0 <memcpy+0x18>
80000af4:	00c12403          	lw	s0,12(sp)
80000af8:	01010113          	addi	sp,sp,16
80000afc:	00008067          	ret

80000b00 <strlen>:
80000b00:	ff010113          	addi	sp,sp,-16
80000b04:	00812623          	sw	s0,12(sp)
80000b08:	01010413          	addi	s0,sp,16
80000b0c:	00054783          	lbu	a5,0(a0)
80000b10:	02078463          	beqz	a5,80000b38 <strlen+0x38>
80000b14:	00050713          	mv	a4,a0
80000b18:	00000513          	li	a0,0
80000b1c:	00150513          	addi	a0,a0,1
80000b20:	00a707b3          	add	a5,a4,a0
80000b24:	0007c783          	lbu	a5,0(a5)
80000b28:	fe079ae3          	bnez	a5,80000b1c <strlen+0x1c>
80000b2c:	00c12403          	lw	s0,12(sp)
80000b30:	01010113          	addi	sp,sp,16
80000b34:	00008067          	ret
80000b38:	00000513          	li	a0,0
80000b3c:	ff1ff06f          	j	80000b2c <strlen+0x2c>

80000b40 <strcpy>:
80000b40:	ff010113          	addi	sp,sp,-16
80000b44:	00812623          	sw	s0,12(sp)
80000b48:	01010413          	addi	s0,sp,16
80000b4c:	0005c783          	lbu	a5,0(a1)
80000b50:	02078663          	beqz	a5,80000b7c <strcpy+0x3c>
80000b54:	00050713          	mv	a4,a0
80000b58:	00158593          	addi	a1,a1,1
80000b5c:	00170713          	addi	a4,a4,1
80000b60:	fef70fa3          	sb	a5,-1(a4)
80000b64:	0005c783          	lbu	a5,0(a1)
80000b68:	fe0798e3          	bnez	a5,80000b58 <strcpy+0x18>
80000b6c:	00070023          	sb	zero,0(a4)
80000b70:	00c12403          	lw	s0,12(sp)
80000b74:	01010113          	addi	sp,sp,16
80000b78:	00008067          	ret
80000b7c:	00050713          	mv	a4,a0
80000b80:	fedff06f          	j	80000b6c <strcpy+0x2c>

80000b84 <strcmp>:
80000b84:	ff010113          	addi	sp,sp,-16
80000b88:	00812623          	sw	s0,12(sp)
80000b8c:	01010413          	addi	s0,sp,16
80000b90:	00054783          	lbu	a5,0(a0)
80000b94:	02078063          	beqz	a5,80000bb4 <strcmp+0x30>
80000b98:	0005c703          	lbu	a4,0(a1)
80000b9c:	00070c63          	beqz	a4,80000bb4 <strcmp+0x30>
80000ba0:	00f71a63          	bne	a4,a5,80000bb4 <strcmp+0x30>
80000ba4:	00150513          	addi	a0,a0,1
80000ba8:	00158593          	addi	a1,a1,1
80000bac:	00054783          	lbu	a5,0(a0)
80000bb0:	fe0794e3          	bnez	a5,80000b98 <strcmp+0x14>
80000bb4:	0005c503          	lbu	a0,0(a1)
80000bb8:	40a78533          	sub	a0,a5,a0
80000bbc:	00c12403          	lw	s0,12(sp)
80000bc0:	01010113          	addi	sp,sp,16
80000bc4:	00008067          	ret

80000bc8 <printf>:
80000bc8:	f9010113          	addi	sp,sp,-112
80000bcc:	04112623          	sw	ra,76(sp)
80000bd0:	04812423          	sw	s0,72(sp)
80000bd4:	04912223          	sw	s1,68(sp)
80000bd8:	05212023          	sw	s2,64(sp)
80000bdc:	03312e23          	sw	s3,60(sp)
80000be0:	03412c23          	sw	s4,56(sp)
80000be4:	03512a23          	sw	s5,52(sp)
80000be8:	03612823          	sw	s6,48(sp)
80000bec:	03712623          	sw	s7,44(sp)
80000bf0:	03812423          	sw	s8,40(sp)
80000bf4:	03912223          	sw	s9,36(sp)
80000bf8:	03a12023          	sw	s10,32(sp)
80000bfc:	01b12e23          	sw	s11,28(sp)
80000c00:	05010413          	addi	s0,sp,80
80000c04:	00050493          	mv	s1,a0
80000c08:	00b42223          	sw	a1,4(s0)
80000c0c:	00c42423          	sw	a2,8(s0)
80000c10:	00d42623          	sw	a3,12(s0)
80000c14:	00e42823          	sw	a4,16(s0)
80000c18:	00f42a23          	sw	a5,20(s0)
80000c1c:	01042c23          	sw	a6,24(s0)
80000c20:	01142e23          	sw	a7,28(s0)
80000c24:	00440793          	addi	a5,s0,4
80000c28:	faf42e23          	sw	a5,-68(s0)
80000c2c:	00003517          	auipc	a0,0x3
80000c30:	2d850513          	addi	a0,a0,728 # 80003f04 <console_lock>
80000c34:	310000ef          	jal	ra,80000f44 <acquire>
80000c38:	0004c503          	lbu	a0,0(s1)
80000c3c:	04050463          	beqz	a0,80000c84 <printf+0xbc>
80000c40:	02500a13          	li	s4,37
80000c44:	06400b13          	li	s6,100
80000c48:	00900a93          	li	s5,9
80000c4c:	00a00c93          	li	s9,10
80000c50:	07300d93          	li	s11,115
80000c54:	07800d13          	li	s10,120
80000c58:	00002c17          	auipc	s8,0x2
80000c5c:	500c0c13          	addi	s8,s8,1280 # 80003158 <__text_end+0x158>
80000c60:	ffc00b93          	li	s7,-4
80000c64:	1140006f          	j	80000d78 <printf+0x1b0>
80000c68:	00078a63          	beqz	a5,80000c7c <printf+0xb4>
80000c6c:	11479063          	bne	a5,s4,80000d6c <printf+0x1a4>
80000c70:	000a0513          	mv	a0,s4
80000c74:	b1dff0ef          	jal	ra,80000790 <console_putc>
80000c78:	0f40006f          	j	80000d6c <printf+0x1a4>
80000c7c:	02500513          	li	a0,37
80000c80:	b11ff0ef          	jal	ra,80000790 <console_putc>
80000c84:	00003517          	auipc	a0,0x3
80000c88:	28050513          	addi	a0,a0,640 # 80003f04 <console_lock>
80000c8c:	2fc000ef          	jal	ra,80000f88 <release>
80000c90:	04c12083          	lw	ra,76(sp)
80000c94:	04812403          	lw	s0,72(sp)
80000c98:	04412483          	lw	s1,68(sp)
80000c9c:	04012903          	lw	s2,64(sp)
80000ca0:	03c12983          	lw	s3,60(sp)
80000ca4:	03812a03          	lw	s4,56(sp)
80000ca8:	03412a83          	lw	s5,52(sp)
80000cac:	03012b03          	lw	s6,48(sp)
80000cb0:	02c12b83          	lw	s7,44(sp)
80000cb4:	02812c03          	lw	s8,40(sp)
80000cb8:	02412c83          	lw	s9,36(sp)
80000cbc:	02012d03          	lw	s10,32(sp)
80000cc0:	01c12d83          	lw	s11,28(sp)
80000cc4:	07010113          	addi	sp,sp,112
80000cc8:	00008067          	ret
80000ccc:	fbc42783          	lw	a5,-68(s0)
80000cd0:	00478713          	addi	a4,a5,4
80000cd4:	fae42e23          	sw	a4,-68(s0)
80000cd8:	0007a483          	lw	s1,0(a5)
80000cdc:	0004c503          	lbu	a0,0(s1)
80000ce0:	08050663          	beqz	a0,80000d6c <printf+0x1a4>
80000ce4:	aadff0ef          	jal	ra,80000790 <console_putc>
80000ce8:	00148493          	addi	s1,s1,1
80000cec:	0004c503          	lbu	a0,0(s1)
80000cf0:	fe051ae3          	bnez	a0,80000ce4 <printf+0x11c>
80000cf4:	0780006f          	j	80000d6c <printf+0x1a4>
80000cf8:	fbc42783          	lw	a5,-68(s0)
80000cfc:	00478713          	addi	a4,a5,4
80000d00:	fae42e23          	sw	a4,-68(s0)
80000d04:	0007a903          	lw	s2,0(a5)
80000d08:	04094663          	bltz	s2,80000d54 <printf+0x18c>
80000d0c:	0b2ade63          	bge	s5,s2,80000dc8 <printf+0x200>
80000d10:	00100493          	li	s1,1
80000d14:	00249793          	slli	a5,s1,0x2
80000d18:	009787b3          	add	a5,a5,s1
80000d1c:	00179793          	slli	a5,a5,0x1
80000d20:	00078493          	mv	s1,a5
80000d24:	02f947b3          	div	a5,s2,a5
80000d28:	fefac6e3          	blt	s5,a5,80000d14 <printf+0x14c>
80000d2c:	04905063          	blez	s1,80000d6c <printf+0x1a4>
80000d30:	02994533          	div	a0,s2,s1
80000d34:	03050513          	addi	a0,a0,48
80000d38:	0ff57513          	zext.b	a0,a0
80000d3c:	a55ff0ef          	jal	ra,80000790 <console_putc>
80000d40:	02996933          	rem	s2,s2,s1
80000d44:	00048793          	mv	a5,s1
80000d48:	0394c4b3          	div	s1,s1,s9
80000d4c:	fefac2e3          	blt	s5,a5,80000d30 <printf+0x168>
80000d50:	01c0006f          	j	80000d6c <printf+0x1a4>
80000d54:	02d00513          	li	a0,45
80000d58:	a39ff0ef          	jal	ra,80000790 <console_putc>
80000d5c:	41200933          	neg	s2,s2
80000d60:	fadff06f          	j	80000d0c <printf+0x144>
80000d64:	a2dff0ef          	jal	ra,80000790 <console_putc>
80000d68:	00048993          	mv	s3,s1
80000d6c:	00198493          	addi	s1,s3,1 # fffff001 <__mem_end+0x77fff001>
80000d70:	0019c503          	lbu	a0,1(s3)
80000d74:	f00508e3          	beqz	a0,80000c84 <printf+0xbc>
80000d78:	ff4516e3          	bne	a0,s4,80000d64 <printf+0x19c>
80000d7c:	00148993          	addi	s3,s1,1
80000d80:	0014c783          	lbu	a5,1(s1)
80000d84:	f7678ae3          	beq	a5,s6,80000cf8 <printf+0x130>
80000d88:	eefb70e3          	bgeu	s6,a5,80000c68 <printf+0xa0>
80000d8c:	f5b780e3          	beq	a5,s11,80000ccc <printf+0x104>
80000d90:	fda79ee3          	bne	a5,s10,80000d6c <printf+0x1a4>
80000d94:	fbc42783          	lw	a5,-68(s0)
80000d98:	00478713          	addi	a4,a5,4
80000d9c:	fae42e23          	sw	a4,-68(s0)
80000da0:	0007a903          	lw	s2,0(a5)
80000da4:	01c00493          	li	s1,28
80000da8:	409957b3          	sra	a5,s2,s1
80000dac:	00f7f793          	andi	a5,a5,15
80000db0:	00fc07b3          	add	a5,s8,a5
80000db4:	0007c503          	lbu	a0,0(a5)
80000db8:	9d9ff0ef          	jal	ra,80000790 <console_putc>
80000dbc:	ffc48493          	addi	s1,s1,-4
80000dc0:	ff7494e3          	bne	s1,s7,80000da8 <printf+0x1e0>
80000dc4:	fa9ff06f          	j	80000d6c <printf+0x1a4>
80000dc8:	03090513          	addi	a0,s2,48
80000dcc:	0ff57513          	zext.b	a0,a0
80000dd0:	9c1ff0ef          	jal	ra,80000790 <console_putc>
80000dd4:	f99ff06f          	j	80000d6c <printf+0x1a4>

80000dd8 <kernel_main>:
80000dd8:	ff010113          	addi	sp,sp,-16
80000ddc:	00112623          	sw	ra,12(sp)
80000de0:	00812423          	sw	s0,8(sp)
80000de4:	01010413          	addi	s0,sp,16
80000de8:	00020793          	mv	a5,tp
80000dec:	04078063          	beqz	a5,80000e2c <kernel_main+0x54>
80000df0:	00003717          	auipc	a4,0x3
80000df4:	12070713          	addi	a4,a4,288 # 80003f10 <ready>
80000df8:	00072783          	lw	a5,0(a4)
80000dfc:	fe078ee3          	beqz	a5,80000df8 <kernel_main+0x20>
80000e00:	0ff0000f          	fence
80000e04:	f2cff0ef          	jal	ra,80000530 <enable_paging>
80000e08:	00020593          	mv	a1,tp
80000e0c:	00002517          	auipc	a0,0x2
80000e10:	36050513          	addi	a0,a0,864 # 8000316c <__text_end+0x16c>
80000e14:	db5ff0ef          	jal	ra,80000bc8 <printf>
80000e18:	6b8000ef          	jal	ra,800014d0 <scheduler>
80000e1c:	00c12083          	lw	ra,12(sp)
80000e20:	00812403          	lw	s0,8(sp)
80000e24:	01010113          	addi	sp,sp,16
80000e28:	00008067          	ret
80000e2c:	bcdff0ef          	jal	ra,800009f8 <init_kalloc>
80000e30:	404010ef          	jal	ra,80002234 <init_vm>
80000e34:	00002517          	auipc	a0,0x2
80000e38:	24c50513          	addi	a0,a0,588 # 80003080 <__text_end+0x80>
80000e3c:	7a5000ef          	jal	ra,80001de0 <create_process>
80000e40:	0ff0000f          	fence
80000e44:	00100793          	li	a5,1
80000e48:	00003717          	auipc	a4,0x3
80000e4c:	0cf72423          	sw	a5,200(a4) # 80003f10 <ready>
80000e50:	fa1ff06f          	j	80000df0 <kernel_main+0x18>

80000e54 <push_irq_off>:
80000e54:	ff010113          	addi	sp,sp,-16
80000e58:	00812623          	sw	s0,12(sp)
80000e5c:	01010413          	addi	s0,sp,16
80000e60:	10002673          	csrr	a2,sstatus
80000e64:	00020713          	mv	a4,tp
80000e68:	10017073          	csrci	sstatus,2
80000e6c:	00471793          	slli	a5,a4,0x4
80000e70:	00e787b3          	add	a5,a5,a4
80000e74:	00279793          	slli	a5,a5,0x2
80000e78:	00003697          	auipc	a3,0x3
80000e7c:	09c68693          	addi	a3,a3,156 # 80003f14 <cpus_state>
80000e80:	00f687b3          	add	a5,a3,a5
80000e84:	0007a683          	lw	a3,0(a5)
80000e88:	02069463          	bnez	a3,80000eb0 <push_irq_off+0x5c>
80000e8c:	00471793          	slli	a5,a4,0x4
80000e90:	00e787b3          	add	a5,a5,a4
80000e94:	00279793          	slli	a5,a5,0x2
80000e98:	00003597          	auipc	a1,0x3
80000e9c:	07c58593          	addi	a1,a1,124 # 80003f14 <cpus_state>
80000ea0:	00f587b3          	add	a5,a1,a5
80000ea4:	00165613          	srli	a2,a2,0x1
80000ea8:	00167613          	andi	a2,a2,1
80000eac:	00c7a223          	sw	a2,4(a5)
80000eb0:	00471793          	slli	a5,a4,0x4
80000eb4:	00e787b3          	add	a5,a5,a4
80000eb8:	00279793          	slli	a5,a5,0x2
80000ebc:	00003717          	auipc	a4,0x3
80000ec0:	05870713          	addi	a4,a4,88 # 80003f14 <cpus_state>
80000ec4:	00f707b3          	add	a5,a4,a5
80000ec8:	00168693          	addi	a3,a3,1
80000ecc:	00d7a023          	sw	a3,0(a5)
80000ed0:	00c12403          	lw	s0,12(sp)
80000ed4:	01010113          	addi	sp,sp,16
80000ed8:	00008067          	ret

80000edc <pop_irq_off>:
80000edc:	ff010113          	addi	sp,sp,-16
80000ee0:	00812623          	sw	s0,12(sp)
80000ee4:	01010413          	addi	s0,sp,16
80000ee8:	00020693          	mv	a3,tp
80000eec:	00469793          	slli	a5,a3,0x4
80000ef0:	00d787b3          	add	a5,a5,a3
80000ef4:	00279793          	slli	a5,a5,0x2
80000ef8:	00003717          	auipc	a4,0x3
80000efc:	01c70713          	addi	a4,a4,28 # 80003f14 <cpus_state>
80000f00:	00f70733          	add	a4,a4,a5
80000f04:	00072783          	lw	a5,0(a4)
80000f08:	fff78793          	addi	a5,a5,-1
80000f0c:	00f72023          	sw	a5,0(a4)
80000f10:	02079463          	bnez	a5,80000f38 <pop_irq_off+0x5c>
80000f14:	00469793          	slli	a5,a3,0x4
80000f18:	00d787b3          	add	a5,a5,a3
80000f1c:	00279793          	slli	a5,a5,0x2
80000f20:	00003717          	auipc	a4,0x3
80000f24:	ff470713          	addi	a4,a4,-12 # 80003f14 <cpus_state>
80000f28:	00f707b3          	add	a5,a4,a5
80000f2c:	0047a783          	lw	a5,4(a5)
80000f30:	00078463          	beqz	a5,80000f38 <pop_irq_off+0x5c>
80000f34:	10016073          	csrsi	sstatus,2
80000f38:	00c12403          	lw	s0,12(sp)
80000f3c:	01010113          	addi	sp,sp,16
80000f40:	00008067          	ret

80000f44 <acquire>:
80000f44:	ff010113          	addi	sp,sp,-16
80000f48:	00112623          	sw	ra,12(sp)
80000f4c:	00812423          	sw	s0,8(sp)
80000f50:	00912223          	sw	s1,4(sp)
80000f54:	01010413          	addi	s0,sp,16
80000f58:	00050493          	mv	s1,a0
80000f5c:	ef9ff0ef          	jal	ra,80000e54 <push_irq_off>
80000f60:	00100713          	li	a4,1
80000f64:	00070793          	mv	a5,a4
80000f68:	0cf4a7af          	amoswap.w.aq	a5,a5,(s1)
80000f6c:	fe079ce3          	bnez	a5,80000f64 <acquire+0x20>
80000f70:	0ff0000f          	fence
80000f74:	00c12083          	lw	ra,12(sp)
80000f78:	00812403          	lw	s0,8(sp)
80000f7c:	00412483          	lw	s1,4(sp)
80000f80:	01010113          	addi	sp,sp,16
80000f84:	00008067          	ret

80000f88 <release>:
80000f88:	ff010113          	addi	sp,sp,-16
80000f8c:	00112623          	sw	ra,12(sp)
80000f90:	00812423          	sw	s0,8(sp)
80000f94:	01010413          	addi	s0,sp,16
80000f98:	0ff0000f          	fence
80000f9c:	0f50000f          	fence	iorw,ow
80000fa0:	0805202f          	amoswap.w	zero,zero,(a0)
80000fa4:	f39ff0ef          	jal	ra,80000edc <pop_irq_off>
80000fa8:	00c12083          	lw	ra,12(sp)
80000fac:	00812403          	lw	s0,8(sp)
80000fb0:	01010113          	addi	sp,sp,16
80000fb4:	00008067          	ret

80000fb8 <sys_exit>:
80000fb8:	ff010113          	addi	sp,sp,-16
80000fbc:	00812623          	sw	s0,12(sp)
80000fc0:	01010413          	addi	s0,sp,16
80000fc4:	0a852783          	lw	a5,168(a0)
80000fc8:	00100713          	li	a4,1
80000fcc:	06e52223          	sw	a4,100(a0)
80000fd0:	00001737          	lui	a4,0x1
80000fd4:	00e787b3          	add	a5,a5,a4
80000fd8:	fa87a783          	lw	a5,-88(a5)
80000fdc:	06f52423          	sw	a5,104(a0)
80000fe0:	00000513          	li	a0,0
80000fe4:	00c12403          	lw	s0,12(sp)
80000fe8:	01010113          	addi	sp,sp,16
80000fec:	00008067          	ret

80000ff0 <sys_getpid>:
80000ff0:	ff010113          	addi	sp,sp,-16
80000ff4:	00812623          	sw	s0,12(sp)
80000ff8:	01010413          	addi	s0,sp,16
80000ffc:	00452503          	lw	a0,4(a0)
80001000:	00c12403          	lw	s0,12(sp)
80001004:	01010113          	addi	sp,sp,16
80001008:	00008067          	ret

8000100c <sys_console_puts>:
8000100c:	ff010113          	addi	sp,sp,-16
80001010:	00112623          	sw	ra,12(sp)
80001014:	00812423          	sw	s0,8(sp)
80001018:	01010413          	addi	s0,sp,16
8000101c:	0a852783          	lw	a5,168(a0)
80001020:	00001737          	lui	a4,0x1
80001024:	00e787b3          	add	a5,a5,a4
80001028:	fa87a583          	lw	a1,-88(a5)
8000102c:	0b852503          	lw	a0,184(a0)
80001030:	de8ff0ef          	jal	ra,80000618 <va2kernel_address>
80001034:	00050593          	mv	a1,a0
80001038:	00002517          	auipc	a0,0x2
8000103c:	15450513          	addi	a0,a0,340 # 8000318c <__text_end+0x18c>
80001040:	b89ff0ef          	jal	ra,80000bc8 <printf>
80001044:	00000513          	li	a0,0
80001048:	00c12083          	lw	ra,12(sp)
8000104c:	00812403          	lw	s0,8(sp)
80001050:	01010113          	addi	sp,sp,16
80001054:	00008067          	ret

80001058 <sys_console_putc>:
80001058:	ff010113          	addi	sp,sp,-16
8000105c:	00112623          	sw	ra,12(sp)
80001060:	00812423          	sw	s0,8(sp)
80001064:	01010413          	addi	s0,sp,16
80001068:	0a852783          	lw	a5,168(a0)
8000106c:	00001737          	lui	a4,0x1
80001070:	00e787b3          	add	a5,a5,a4
80001074:	fa87c503          	lbu	a0,-88(a5)
80001078:	f18ff0ef          	jal	ra,80000790 <console_putc>
8000107c:	00000513          	li	a0,0
80001080:	00c12083          	lw	ra,12(sp)
80001084:	00812403          	lw	s0,8(sp)
80001088:	01010113          	addi	sp,sp,16
8000108c:	00008067          	ret

80001090 <sys_console_getc>:
80001090:	ff010113          	addi	sp,sp,-16
80001094:	00112623          	sw	ra,12(sp)
80001098:	00812423          	sw	s0,8(sp)
8000109c:	01010413          	addi	s0,sp,16
800010a0:	f7cff0ef          	jal	ra,8000081c <console_read_char>
800010a4:	00c12083          	lw	ra,12(sp)
800010a8:	00812403          	lw	s0,8(sp)
800010ac:	01010113          	addi	sp,sp,16
800010b0:	00008067          	ret

800010b4 <sys_sleep>:
800010b4:	ff010113          	addi	sp,sp,-16
800010b8:	00112623          	sw	ra,12(sp)
800010bc:	00812423          	sw	s0,8(sp)
800010c0:	00912223          	sw	s1,4(sp)
800010c4:	01010413          	addi	s0,sp,16
800010c8:	0a852783          	lw	a5,168(a0)
800010cc:	00001737          	lui	a4,0x1
800010d0:	00e787b3          	add	a5,a5,a4
800010d4:	fa87a483          	lw	s1,-88(a5)
800010d8:	00452583          	lw	a1,4(a0)
800010dc:	00002517          	auipc	a0,0x2
800010e0:	0b450513          	addi	a0,a0,180 # 80003190 <__text_end+0x190>
800010e4:	ae5ff0ef          	jal	ra,80000bc8 <printf>
800010e8:	00048513          	mv	a0,s1
800010ec:	6d0000ef          	jal	ra,800017bc <sleep>
800010f0:	00000513          	li	a0,0
800010f4:	00c12083          	lw	ra,12(sp)
800010f8:	00812403          	lw	s0,8(sp)
800010fc:	00412483          	lw	s1,4(sp)
80001100:	01010113          	addi	sp,sp,16
80001104:	00008067          	ret

80001108 <syscall>:
80001108:	ff010113          	addi	sp,sp,-16
8000110c:	00112623          	sw	ra,12(sp)
80001110:	00812423          	sw	s0,8(sp)
80001114:	00912223          	sw	s1,4(sp)
80001118:	01010413          	addi	s0,sp,16
8000111c:	0a852483          	lw	s1,168(a0)
80001120:	000017b7          	lui	a5,0x1
80001124:	00f487b3          	add	a5,s1,a5
80001128:	fc47c683          	lbu	a3,-60(a5) # fc4 <__kernel_start-0x7ffff03c>
8000112c:	fc57c703          	lbu	a4,-59(a5)
80001130:	00871713          	slli	a4,a4,0x8
80001134:	00d76733          	or	a4,a4,a3
80001138:	fc67c683          	lbu	a3,-58(a5)
8000113c:	01069693          	slli	a3,a3,0x10
80001140:	00e6e6b3          	or	a3,a3,a4
80001144:	fc77c703          	lbu	a4,-57(a5)
80001148:	01871713          	slli	a4,a4,0x18
8000114c:	00d76733          	or	a4,a4,a3
80001150:	00500693          	li	a3,5
80001154:	fff00793          	li	a5,-1
80001158:	02e6e463          	bltu	a3,a4,80001180 <syscall+0x78>
8000115c:	00271713          	slli	a4,a4,0x2
80001160:	00002797          	auipc	a5,0x2
80001164:	04878793          	addi	a5,a5,72 # 800031a8 <syscalls_table>
80001168:	00e787b3          	add	a5,a5,a4
8000116c:	0007a703          	lw	a4,0(a5)
80001170:	fff00793          	li	a5,-1
80001174:	00070663          	beqz	a4,80001180 <syscall+0x78>
80001178:	000700e7          	jalr	a4 # 1000 <__kernel_start-0x7ffff000>
8000117c:	00050793          	mv	a5,a0
80001180:	00001737          	lui	a4,0x1
80001184:	00e48733          	add	a4,s1,a4
80001188:	faf70423          	sb	a5,-88(a4) # fa8 <__kernel_start-0x7ffff058>
8000118c:	0087d693          	srli	a3,a5,0x8
80001190:	fad704a3          	sb	a3,-87(a4)
80001194:	0107d693          	srli	a3,a5,0x10
80001198:	fad70523          	sb	a3,-86(a4)
8000119c:	0187d793          	srli	a5,a5,0x18
800011a0:	faf705a3          	sb	a5,-85(a4)
800011a4:	00c12083          	lw	ra,12(sp)
800011a8:	00812403          	lw	s0,8(sp)
800011ac:	00412483          	lw	s1,4(sp)
800011b0:	01010113          	addi	sp,sp,16
800011b4:	00008067          	ret

800011b8 <sched>:
800011b8:	ff010113          	addi	sp,sp,-16
800011bc:	00112623          	sw	ra,12(sp)
800011c0:	00812423          	sw	s0,8(sp)
800011c4:	00912223          	sw	s1,4(sp)
800011c8:	01212023          	sw	s2,0(sp)
800011cc:	01010413          	addi	s0,sp,16
800011d0:	00020713          	mv	a4,tp
800011d4:	00003497          	auipc	s1,0x3
800011d8:	d4048493          	addi	s1,s1,-704 # 80003f14 <cpus_state>
800011dc:	00471593          	slli	a1,a4,0x4
800011e0:	00e587b3          	add	a5,a1,a4
800011e4:	00279793          	slli	a5,a5,0x2
800011e8:	00f487b3          	add	a5,s1,a5
800011ec:	0047a903          	lw	s2,4(a5)
800011f0:	00e585b3          	add	a1,a1,a4
800011f4:	00259593          	slli	a1,a1,0x2
800011f8:	00c58593          	addi	a1,a1,12
800011fc:	00b485b3          	add	a1,s1,a1
80001200:	06c50513          	addi	a0,a0,108
80001204:	eadfe0ef          	jal	ra,800000b0 <context_switch>
80001208:	00020713          	mv	a4,tp
8000120c:	00471793          	slli	a5,a4,0x4
80001210:	00e787b3          	add	a5,a5,a4
80001214:	00279793          	slli	a5,a5,0x2
80001218:	00f484b3          	add	s1,s1,a5
8000121c:	0124a223          	sw	s2,4(s1)
80001220:	00c12083          	lw	ra,12(sp)
80001224:	00812403          	lw	s0,8(sp)
80001228:	00412483          	lw	s1,4(sp)
8000122c:	00012903          	lw	s2,0(sp)
80001230:	01010113          	addi	sp,sp,16
80001234:	00008067          	ret

80001238 <init_tasks>:
80001238:	ff010113          	addi	sp,sp,-16
8000123c:	00812623          	sw	s0,12(sp)
80001240:	01010413          	addi	s0,sp,16
80001244:	00003797          	auipc	a5,0x3
80001248:	cd078793          	addi	a5,a5,-816 # 80003f14 <cpus_state>
8000124c:	0007a423          	sw	zero,8(a5)
80001250:	0407a623          	sw	zero,76(a5)
80001254:	0807a823          	sw	zero,144(a5)
80001258:	0c07aa23          	sw	zero,212(a5)
8000125c:	00003797          	auipc	a5,0x3
80001260:	e2478793          	addi	a5,a5,-476 # 80004080 <tasks+0x5c>
80001264:	00004717          	auipc	a4,0x4
80001268:	a1c70713          	addi	a4,a4,-1508 # 80004c80 <__bss_end+0x4c>
8000126c:	0007a023          	sw	zero,0(a5)
80001270:	0607a023          	sw	zero,96(a5)
80001274:	0c078793          	addi	a5,a5,192
80001278:	fee79ae3          	bne	a5,a4,8000126c <init_tasks+0x34>
8000127c:	00c12403          	lw	s0,12(sp)
80001280:	01010113          	addi	sp,sp,16
80001284:	00008067          	ret

80001288 <current_task>:
80001288:	ff010113          	addi	sp,sp,-16
8000128c:	00812623          	sw	s0,12(sp)
80001290:	01010413          	addi	s0,sp,16
80001294:	00020713          	mv	a4,tp
80001298:	00471793          	slli	a5,a4,0x4
8000129c:	00e787b3          	add	a5,a5,a4
800012a0:	00279793          	slli	a5,a5,0x2
800012a4:	00003717          	auipc	a4,0x3
800012a8:	c7070713          	addi	a4,a4,-912 # 80003f14 <cpus_state>
800012ac:	00f707b3          	add	a5,a4,a5
800012b0:	0087a503          	lw	a0,8(a5)
800012b4:	00c12403          	lw	s0,12(sp)
800012b8:	01010113          	addi	sp,sp,16
800012bc:	00008067          	ret

800012c0 <init_task>:
800012c0:	ff010113          	addi	sp,sp,-16
800012c4:	00112623          	sw	ra,12(sp)
800012c8:	00812423          	sw	s0,8(sp)
800012cc:	01010413          	addi	s0,sp,16
800012d0:	fb9ff0ef          	jal	ra,80001288 <current_task>
800012d4:	0bc50513          	addi	a0,a0,188
800012d8:	cb1ff0ef          	jal	ra,80000f88 <release>
800012dc:	10016073          	csrsi	sstatus,2
800012e0:	00c12083          	lw	ra,12(sp)
800012e4:	00812403          	lw	s0,8(sp)
800012e8:	01010113          	addi	sp,sp,16
800012ec:	00008067          	ret

800012f0 <start_process>:
800012f0:	ff010113          	addi	sp,sp,-16
800012f4:	00112623          	sw	ra,12(sp)
800012f8:	00812423          	sw	s0,8(sp)
800012fc:	01010413          	addi	s0,sp,16
80001300:	f89ff0ef          	jal	ra,80001288 <current_task>
80001304:	0bc50513          	addi	a0,a0,188
80001308:	c81ff0ef          	jal	ra,80000f88 <release>
8000130c:	489000ef          	jal	ra,80001f94 <return_to_user_mode>
80001310:	00c12083          	lw	ra,12(sp)
80001314:	00812403          	lw	s0,8(sp)
80001318:	01010113          	addi	sp,sp,16
8000131c:	00008067          	ret

80001320 <create_task>:
80001320:	fe010113          	addi	sp,sp,-32
80001324:	00112e23          	sw	ra,28(sp)
80001328:	00812c23          	sw	s0,24(sp)
8000132c:	00912a23          	sw	s1,20(sp)
80001330:	01212823          	sw	s2,16(sp)
80001334:	01312623          	sw	s3,12(sp)
80001338:	01412423          	sw	s4,8(sp)
8000133c:	01512223          	sw	s5,4(sp)
80001340:	01612023          	sw	s6,0(sp)
80001344:	02010413          	addi	s0,sp,32
80001348:	00050a93          	mv	s5,a0
8000134c:	00058b13          	mv	s6,a1
80001350:	00003497          	auipc	s1,0x3
80001354:	d9048493          	addi	s1,s1,-624 # 800040e0 <tasks+0xbc>
80001358:	00000913          	li	s2,0
8000135c:	01000993          	li	s3,16
80001360:	0180006f          	j	80001378 <create_task+0x58>
80001364:	00048513          	mv	a0,s1
80001368:	c21ff0ef          	jal	ra,80000f88 <release>
8000136c:	00190913          	addi	s2,s2,1
80001370:	0c048493          	addi	s1,s1,192
80001374:	11390663          	beq	s2,s3,80001480 <create_task+0x160>
80001378:	00048a13          	mv	s4,s1
8000137c:	00048513          	mv	a0,s1
80001380:	bc5ff0ef          	jal	ra,80000f44 <acquire>
80001384:	fa04a783          	lw	a5,-96(s1)
80001388:	fc079ee3          	bnez	a5,80001364 <create_task+0x44>
8000138c:	00191993          	slli	s3,s2,0x1
80001390:	012989b3          	add	s3,s3,s2
80001394:	00699993          	slli	s3,s3,0x6
80001398:	00003797          	auipc	a5,0x3
8000139c:	c8c78793          	addi	a5,a5,-884 # 80004024 <tasks>
800013a0:	013784b3          	add	s1,a5,s3
800013a4:	06c98513          	addi	a0,s3,108
800013a8:	03800613          	li	a2,56
800013ac:	00000593          	li	a1,0
800013b0:	00a78533          	add	a0,a5,a0
800013b4:	ee4ff0ef          	jal	ra,80000a98 <memset>
800013b8:	0764a623          	sw	s6,108(s1)
800013bc:	d3cff0ef          	jal	ra,800008f8 <alloc_page>
800013c0:	0aa4a423          	sw	a0,168(s1)
800013c4:	000017b7          	lui	a5,0x1
800013c8:	00f50533          	add	a0,a0,a5
800013cc:	06a4a823          	sw	a0,112(s1)
800013d0:	00004717          	auipc	a4,0x4
800013d4:	85870713          	addi	a4,a4,-1960 # 80004c28 <last_tid>
800013d8:	00072783          	lw	a5,0(a4)
800013dc:	00178793          	addi	a5,a5,1 # 1001 <__kernel_start-0x7fffefff>
800013e0:	00f72023          	sw	a5,0(a4)
800013e4:	00f4a023          	sw	a5,0(s1)
800013e8:	0004a223          	sw	zero,4(s1)
800013ec:	fff00793          	li	a5,-1
800013f0:	0af4a823          	sw	a5,176(s1)
800013f4:	0604a223          	sw	zero,100(s1)
800013f8:	00003797          	auipc	a5,0x3
800013fc:	b087a783          	lw	a5,-1272(a5) # 80003f00 <kernel_pgtbl>
80001400:	0af4ac23          	sw	a5,184(s1)
80001404:	0a04aa23          	sw	zero,180(s1)
80001408:	000a8513          	mv	a0,s5
8000140c:	ef4ff0ef          	jal	ra,80000b00 <strlen>
80001410:	05100793          	li	a5,81
80001414:	00a7d463          	bge	a5,a0,8000141c <create_task+0xfc>
80001418:	040a8823          	sb	zero,80(s5)
8000141c:	00898993          	addi	s3,s3,8
80001420:	00003b17          	auipc	s6,0x3
80001424:	c04b0b13          	addi	s6,s6,-1020 # 80004024 <tasks>
80001428:	000a8593          	mv	a1,s5
8000142c:	013b0533          	add	a0,s6,s3
80001430:	f10ff0ef          	jal	ra,80000b40 <strcpy>
80001434:	00191793          	slli	a5,s2,0x1
80001438:	012787b3          	add	a5,a5,s2
8000143c:	00679793          	slli	a5,a5,0x6
80001440:	00fb0b33          	add	s6,s6,a5
80001444:	00100793          	li	a5,1
80001448:	04fb2e23          	sw	a5,92(s6)
8000144c:	000a0513          	mv	a0,s4
80001450:	b39ff0ef          	jal	ra,80000f88 <release>
80001454:	00048513          	mv	a0,s1
80001458:	01c12083          	lw	ra,28(sp)
8000145c:	01812403          	lw	s0,24(sp)
80001460:	01412483          	lw	s1,20(sp)
80001464:	01012903          	lw	s2,16(sp)
80001468:	00c12983          	lw	s3,12(sp)
8000146c:	00812a03          	lw	s4,8(sp)
80001470:	00412a83          	lw	s5,4(sp)
80001474:	00012b03          	lw	s6,0(sp)
80001478:	02010113          	addi	sp,sp,32
8000147c:	00008067          	ret
80001480:	00000493          	li	s1,0
80001484:	fd1ff06f          	j	80001454 <create_task+0x134>

80001488 <free_resources>:
80001488:	ff010113          	addi	sp,sp,-16
8000148c:	00112623          	sw	ra,12(sp)
80001490:	00812423          	sw	s0,8(sp)
80001494:	00912223          	sw	s1,4(sp)
80001498:	01010413          	addi	s0,sp,16
8000149c:	00050493          	mv	s1,a0
800014a0:	00850593          	addi	a1,a0,8
800014a4:	00002517          	auipc	a0,0x2
800014a8:	d1c50513          	addi	a0,a0,-740 # 800031c0 <syscalls_table+0x18>
800014ac:	f1cff0ef          	jal	ra,80000bc8 <printf>
800014b0:	0a84a503          	lw	a0,168(s1)
800014b4:	c98ff0ef          	jal	ra,8000094c <free_page>
800014b8:	0404ae23          	sw	zero,92(s1)
800014bc:	00c12083          	lw	ra,12(sp)
800014c0:	00812403          	lw	s0,8(sp)
800014c4:	00412483          	lw	s1,4(sp)
800014c8:	01010113          	addi	sp,sp,16
800014cc:	00008067          	ret

800014d0 <scheduler>:
800014d0:	fd010113          	addi	sp,sp,-48
800014d4:	02112623          	sw	ra,44(sp)
800014d8:	02812423          	sw	s0,40(sp)
800014dc:	02912223          	sw	s1,36(sp)
800014e0:	03212023          	sw	s2,32(sp)
800014e4:	01312e23          	sw	s3,28(sp)
800014e8:	01412c23          	sw	s4,24(sp)
800014ec:	01512a23          	sw	s5,20(sp)
800014f0:	01612823          	sw	s6,16(sp)
800014f4:	01712623          	sw	s7,12(sp)
800014f8:	01812423          	sw	s8,8(sp)
800014fc:	01912223          	sw	s9,4(sp)
80001500:	01a12023          	sw	s10,0(sp)
80001504:	03010413          	addi	s0,sp,48
80001508:	00020c93          	mv	s9,tp
8000150c:	00003d17          	auipc	s10,0x3
80001510:	a08d0d13          	addi	s10,s10,-1528 # 80003f14 <cpus_state>
80001514:	004c9793          	slli	a5,s9,0x4
80001518:	01978733          	add	a4,a5,s9
8000151c:	00271713          	slli	a4,a4,0x2
80001520:	00ed0733          	add	a4,s10,a4
80001524:	00072423          	sw	zero,8(a4)
80001528:	019787b3          	add	a5,a5,s9
8000152c:	00279793          	slli	a5,a5,0x2
80001530:	00c78793          	addi	a5,a5,12
80001534:	00fd0d33          	add	s10,s10,a5
80001538:	00003b17          	auipc	s6,0x3
8000153c:	6ecb0b13          	addi	s6,s6,1772 # 80004c24 <last_pid>
80001540:	00600a93          	li	s5,6
80001544:	00070b93          	mv	s7,a4
80001548:	10016073          	csrsi	sstatus,2
8000154c:	00003497          	auipc	s1,0x3
80001550:	ad848493          	addi	s1,s1,-1320 # 80004024 <tasks>
80001554:	00200a13          	li	s4,2
80001558:	00300c13          	li	s8,3
8000155c:	01c0006f          	j	80001578 <scheduler+0xa8>
80001560:	00048513          	mv	a0,s1
80001564:	f25ff0ef          	jal	ra,80001488 <free_resources>
80001568:	00090513          	mv	a0,s2
8000156c:	a1dff0ef          	jal	ra,80000f88 <release>
80001570:	0c048493          	addi	s1,s1,192
80001574:	fd648ae3          	beq	s1,s6,80001548 <scheduler+0x78>
80001578:	0bc48913          	addi	s2,s1,188
8000157c:	00090513          	mv	a0,s2
80001580:	9c5ff0ef          	jal	ra,80000f44 <acquire>
80001584:	05c4a783          	lw	a5,92(s1)
80001588:	fd578ce3          	beq	a5,s5,80001560 <scheduler+0x90>
8000158c:	fd479ee3          	bne	a5,s4,80001568 <scheduler+0x98>
80001590:	0584ae23          	sw	s8,92(s1)
80001594:	0b94a823          	sw	s9,176(s1)
80001598:	0b44a223          	sw	s4,164(s1)
8000159c:	009ba423          	sw	s1,8(s7)
800015a0:	06c48593          	addi	a1,s1,108
800015a4:	000d0513          	mv	a0,s10
800015a8:	b09fe0ef          	jal	ra,800000b0 <context_switch>
800015ac:	fff00793          	li	a5,-1
800015b0:	0af4a823          	sw	a5,176(s1)
800015b4:	000ba423          	sw	zero,8(s7)
800015b8:	fb1ff06f          	j	80001568 <scheduler+0x98>

800015bc <yield>:
800015bc:	ff010113          	addi	sp,sp,-16
800015c0:	00112623          	sw	ra,12(sp)
800015c4:	00812423          	sw	s0,8(sp)
800015c8:	00912223          	sw	s1,4(sp)
800015cc:	01212023          	sw	s2,0(sp)
800015d0:	01010413          	addi	s0,sp,16
800015d4:	00020713          	mv	a4,tp
800015d8:	00471793          	slli	a5,a4,0x4
800015dc:	00e787b3          	add	a5,a5,a4
800015e0:	00279793          	slli	a5,a5,0x2
800015e4:	00003717          	auipc	a4,0x3
800015e8:	93070713          	addi	a4,a4,-1744 # 80003f14 <cpus_state>
800015ec:	00f707b3          	add	a5,a4,a5
800015f0:	0087a483          	lw	s1,8(a5)
800015f4:	04048063          	beqz	s1,80001634 <yield+0x78>
800015f8:	0bc48913          	addi	s2,s1,188
800015fc:	00090513          	mv	a0,s2
80001600:	945ff0ef          	jal	ra,80000f44 <acquire>
80001604:	00200793          	li	a5,2
80001608:	04f4ae23          	sw	a5,92(s1)
8000160c:	00048513          	mv	a0,s1
80001610:	ba9ff0ef          	jal	ra,800011b8 <sched>
80001614:	00090513          	mv	a0,s2
80001618:	971ff0ef          	jal	ra,80000f88 <release>
8000161c:	00c12083          	lw	ra,12(sp)
80001620:	00812403          	lw	s0,8(sp)
80001624:	00412483          	lw	s1,4(sp)
80001628:	00012903          	lw	s2,0(sp)
8000162c:	01010113          	addi	sp,sp,16
80001630:	00008067          	ret
80001634:	09200613          	li	a2,146
80001638:	00002597          	auipc	a1,0x2
8000163c:	ba858593          	addi	a1,a1,-1112 # 800031e0 <syscalls_table+0x38>
80001640:	00002517          	auipc	a0,0x2
80001644:	ba850513          	addi	a0,a0,-1112 # 800031e8 <syscalls_table+0x40>
80001648:	d80ff0ef          	jal	ra,80000bc8 <printf>
8000164c:	10017073          	csrci	sstatus,2
80001650:	0000006f          	j	80001650 <yield+0x94>

80001654 <suspend>:
80001654:	fe010113          	addi	sp,sp,-32
80001658:	00112e23          	sw	ra,28(sp)
8000165c:	00812c23          	sw	s0,24(sp)
80001660:	00912a23          	sw	s1,20(sp)
80001664:	01212823          	sw	s2,16(sp)
80001668:	01312623          	sw	s3,12(sp)
8000166c:	01412423          	sw	s4,8(sp)
80001670:	02010413          	addi	s0,sp,32
80001674:	00050993          	mv	s3,a0
80001678:	00058913          	mv	s2,a1
8000167c:	c0dff0ef          	jal	ra,80001288 <current_task>
80001680:	00050493          	mv	s1,a0
80001684:	0bc50a13          	addi	s4,a0,188
80001688:	000a0513          	mv	a0,s4
8000168c:	8b9ff0ef          	jal	ra,80000f44 <acquire>
80001690:	00090513          	mv	a0,s2
80001694:	8f5ff0ef          	jal	ra,80000f88 <release>
80001698:	0b34aa23          	sw	s3,180(s1)
8000169c:	00400793          	li	a5,4
800016a0:	04f4ae23          	sw	a5,92(s1)
800016a4:	00048513          	mv	a0,s1
800016a8:	b11ff0ef          	jal	ra,800011b8 <sched>
800016ac:	0a04aa23          	sw	zero,180(s1)
800016b0:	000a0513          	mv	a0,s4
800016b4:	8d5ff0ef          	jal	ra,80000f88 <release>
800016b8:	00090513          	mv	a0,s2
800016bc:	889ff0ef          	jal	ra,80000f44 <acquire>
800016c0:	01c12083          	lw	ra,28(sp)
800016c4:	01812403          	lw	s0,24(sp)
800016c8:	01412483          	lw	s1,20(sp)
800016cc:	01012903          	lw	s2,16(sp)
800016d0:	00c12983          	lw	s3,12(sp)
800016d4:	00812a03          	lw	s4,8(sp)
800016d8:	02010113          	addi	sp,sp,32
800016dc:	00008067          	ret

800016e0 <wakeup>:
800016e0:	fd010113          	addi	sp,sp,-48
800016e4:	02112623          	sw	ra,44(sp)
800016e8:	02812423          	sw	s0,40(sp)
800016ec:	02912223          	sw	s1,36(sp)
800016f0:	03212023          	sw	s2,32(sp)
800016f4:	01312e23          	sw	s3,28(sp)
800016f8:	01412c23          	sw	s4,24(sp)
800016fc:	01512a23          	sw	s5,20(sp)
80001700:	01612823          	sw	s6,16(sp)
80001704:	01712623          	sw	s7,12(sp)
80001708:	01812423          	sw	s8,8(sp)
8000170c:	01912223          	sw	s9,4(sp)
80001710:	03010413          	addi	s0,sp,48
80001714:	00050b93          	mv	s7,a0
80001718:	b71ff0ef          	jal	ra,80001288 <current_task>
8000171c:	00050a13          	mv	s4,a0
80001720:	00003497          	auipc	s1,0x3
80001724:	90448493          	addi	s1,s1,-1788 # 80004024 <tasks>
80001728:	00003a97          	auipc	s5,0x3
8000172c:	4fca8a93          	addi	s5,s5,1276 # 80004c24 <last_pid>
80001730:	00400b13          	li	s6,4
80001734:	00002c97          	auipc	s9,0x2
80001738:	accc8c93          	addi	s9,s9,-1332 # 80003200 <syscalls_table+0x58>
8000173c:	00200c13          	li	s8,2
80001740:	0140006f          	j	80001754 <wakeup+0x74>
80001744:	00090513          	mv	a0,s2
80001748:	841ff0ef          	jal	ra,80000f88 <release>
8000174c:	0c048493          	addi	s1,s1,192
80001750:	03548c63          	beq	s1,s5,80001788 <wakeup+0xa8>
80001754:	fe9a0ce3          	beq	s4,s1,8000174c <wakeup+0x6c>
80001758:	0bc48913          	addi	s2,s1,188
8000175c:	00090513          	mv	a0,s2
80001760:	fe4ff0ef          	jal	ra,80000f44 <acquire>
80001764:	05c4a783          	lw	a5,92(s1)
80001768:	fd679ee3          	bne	a5,s6,80001744 <wakeup+0x64>
8000176c:	0b44a783          	lw	a5,180(s1)
80001770:	fd779ae3          	bne	a5,s7,80001744 <wakeup+0x64>
80001774:	0044a583          	lw	a1,4(s1)
80001778:	000c8513          	mv	a0,s9
8000177c:	c4cff0ef          	jal	ra,80000bc8 <printf>
80001780:	0584ae23          	sw	s8,92(s1)
80001784:	fc1ff06f          	j	80001744 <wakeup+0x64>
80001788:	02c12083          	lw	ra,44(sp)
8000178c:	02812403          	lw	s0,40(sp)
80001790:	02412483          	lw	s1,36(sp)
80001794:	02012903          	lw	s2,32(sp)
80001798:	01c12983          	lw	s3,28(sp)
8000179c:	01812a03          	lw	s4,24(sp)
800017a0:	01412a83          	lw	s5,20(sp)
800017a4:	01012b03          	lw	s6,16(sp)
800017a8:	00c12b83          	lw	s7,12(sp)
800017ac:	00812c03          	lw	s8,8(sp)
800017b0:	00412c83          	lw	s9,4(sp)
800017b4:	03010113          	addi	sp,sp,48
800017b8:	00008067          	ret

800017bc <sleep>:
800017bc:	ff010113          	addi	sp,sp,-16
800017c0:	00112623          	sw	ra,12(sp)
800017c4:	00812423          	sw	s0,8(sp)
800017c8:	00912223          	sw	s1,4(sp)
800017cc:	01212023          	sw	s2,0(sp)
800017d0:	01010413          	addi	s0,sp,16
800017d4:	00050913          	mv	s2,a0
800017d8:	ab1ff0ef          	jal	ra,80001288 <current_task>
800017dc:	04050863          	beqz	a0,8000182c <sleep+0x70>
800017e0:	00050493          	mv	s1,a0
800017e4:	00003517          	auipc	a0,0x3
800017e8:	44850513          	addi	a0,a0,1096 # 80004c2c <ticks_lock>
800017ec:	f58ff0ef          	jal	ra,80000f44 <acquire>
800017f0:	0b24a623          	sw	s2,172(s1)
800017f4:	00003597          	auipc	a1,0x3
800017f8:	43858593          	addi	a1,a1,1080 # 80004c2c <ticks_lock>
800017fc:	00003517          	auipc	a0,0x3
80001800:	43450513          	addi	a0,a0,1076 # 80004c30 <ticks>
80001804:	e51ff0ef          	jal	ra,80001654 <suspend>
80001808:	00003517          	auipc	a0,0x3
8000180c:	42450513          	addi	a0,a0,1060 # 80004c2c <ticks_lock>
80001810:	f78ff0ef          	jal	ra,80000f88 <release>
80001814:	00c12083          	lw	ra,12(sp)
80001818:	00812403          	lw	s0,8(sp)
8000181c:	00412483          	lw	s1,4(sp)
80001820:	00012903          	lw	s2,0(sp)
80001824:	01010113          	addi	sp,sp,16
80001828:	00008067          	ret
8000182c:	0cf00613          	li	a2,207
80001830:	00002597          	auipc	a1,0x2
80001834:	9b058593          	addi	a1,a1,-1616 # 800031e0 <syscalls_table+0x38>
80001838:	00002517          	auipc	a0,0x2
8000183c:	9d850513          	addi	a0,a0,-1576 # 80003210 <syscalls_table+0x68>
80001840:	b88ff0ef          	jal	ra,80000bc8 <printf>
80001844:	10017073          	csrci	sstatus,2
80001848:	0000006f          	j	80001848 <sleep+0x8c>

8000184c <wait_for_task>:
8000184c:	fe010113          	addi	sp,sp,-32
80001850:	00112e23          	sw	ra,28(sp)
80001854:	00812c23          	sw	s0,24(sp)
80001858:	00912a23          	sw	s1,20(sp)
8000185c:	01212823          	sw	s2,16(sp)
80001860:	01312623          	sw	s3,12(sp)
80001864:	02010413          	addi	s0,sp,32
80001868:	00050493          	mv	s1,a0
8000186c:	0bc50993          	addi	s3,a0,188
80001870:	00098513          	mv	a0,s3
80001874:	ed0ff0ef          	jal	ra,80000f44 <acquire>
80001878:	05c4a903          	lw	s2,92(s1)
8000187c:	00090a63          	beqz	s2,80001890 <wait_for_task+0x44>
80001880:	00600793          	li	a5,6
80001884:	02f91a63          	bne	s2,a5,800018b8 <wait_for_task+0x6c>
80001888:	0684a903          	lw	s2,104(s1)
8000188c:	0404ae23          	sw	zero,92(s1)
80001890:	00098513          	mv	a0,s3
80001894:	ef4ff0ef          	jal	ra,80000f88 <release>
80001898:	00090513          	mv	a0,s2
8000189c:	01c12083          	lw	ra,28(sp)
800018a0:	01812403          	lw	s0,24(sp)
800018a4:	01412483          	lw	s1,20(sp)
800018a8:	01012903          	lw	s2,16(sp)
800018ac:	00c12983          	lw	s3,12(sp)
800018b0:	02010113          	addi	sp,sp,32
800018b4:	00008067          	ret
800018b8:	00098593          	mv	a1,s3
800018bc:	00048513          	mv	a0,s1
800018c0:	d95ff0ef          	jal	ra,80001654 <suspend>
800018c4:	05c4a703          	lw	a4,92(s1)
800018c8:	00600793          	li	a5,6
800018cc:	00000913          	li	s2,0
800018d0:	fcf710e3          	bne	a4,a5,80001890 <wait_for_task+0x44>
800018d4:	fb5ff06f          	j	80001888 <wait_for_task+0x3c>

800018d8 <terminate>:
800018d8:	ff010113          	addi	sp,sp,-16
800018dc:	00112623          	sw	ra,12(sp)
800018e0:	00812423          	sw	s0,8(sp)
800018e4:	00912223          	sw	s1,4(sp)
800018e8:	01010413          	addi	s0,sp,16
800018ec:	99dff0ef          	jal	ra,80001288 <current_task>
800018f0:	04050263          	beqz	a0,80001934 <terminate+0x5c>
800018f4:	00050493          	mv	s1,a0
800018f8:	00600793          	li	a5,6
800018fc:	04f52e23          	sw	a5,92(a0)
80001900:	de1ff0ef          	jal	ra,800016e0 <wakeup>
80001904:	0bc48513          	addi	a0,s1,188
80001908:	e3cff0ef          	jal	ra,80000f44 <acquire>
8000190c:	00048513          	mv	a0,s1
80001910:	8a9ff0ef          	jal	ra,800011b8 <sched>
80001914:	10200613          	li	a2,258
80001918:	00002597          	auipc	a1,0x2
8000191c:	8c858593          	addi	a1,a1,-1848 # 800031e0 <syscalls_table+0x38>
80001920:	00002517          	auipc	a0,0x2
80001924:	94050513          	addi	a0,a0,-1728 # 80003260 <syscalls_table+0xb8>
80001928:	aa0ff0ef          	jal	ra,80000bc8 <printf>
8000192c:	10017073          	csrci	sstatus,2
80001930:	0000006f          	j	80001930 <terminate+0x58>
80001934:	0f100613          	li	a2,241
80001938:	00002597          	auipc	a1,0x2
8000193c:	8a858593          	addi	a1,a1,-1880 # 800031e0 <syscalls_table+0x38>
80001940:	00002517          	auipc	a0,0x2
80001944:	8f850513          	addi	a0,a0,-1800 # 80003238 <syscalls_table+0x90>
80001948:	a80ff0ef          	jal	ra,80000bc8 <printf>
8000194c:	10017073          	csrci	sstatus,2
80001950:	0000006f          	j	80001950 <terminate+0x78>

80001954 <get_ticks>:
80001954:	ff010113          	addi	sp,sp,-16
80001958:	00112623          	sw	ra,12(sp)
8000195c:	00812423          	sw	s0,8(sp)
80001960:	00912223          	sw	s1,4(sp)
80001964:	01010413          	addi	s0,sp,16
80001968:	00003517          	auipc	a0,0x3
8000196c:	2c450513          	addi	a0,a0,708 # 80004c2c <ticks_lock>
80001970:	dd4ff0ef          	jal	ra,80000f44 <acquire>
80001974:	00003497          	auipc	s1,0x3
80001978:	2bc4a483          	lw	s1,700(s1) # 80004c30 <ticks>
8000197c:	00003517          	auipc	a0,0x3
80001980:	2b050513          	addi	a0,a0,688 # 80004c2c <ticks_lock>
80001984:	e04ff0ef          	jal	ra,80000f88 <release>
80001988:	00048513          	mv	a0,s1
8000198c:	00c12083          	lw	ra,12(sp)
80001990:	00812403          	lw	s0,8(sp)
80001994:	00412483          	lw	s1,4(sp)
80001998:	01010113          	addi	sp,sp,16
8000199c:	00008067          	ret

800019a0 <inc_ticks>:
800019a0:	fd010113          	addi	sp,sp,-48
800019a4:	02112623          	sw	ra,44(sp)
800019a8:	02812423          	sw	s0,40(sp)
800019ac:	02912223          	sw	s1,36(sp)
800019b0:	03212023          	sw	s2,32(sp)
800019b4:	01312e23          	sw	s3,28(sp)
800019b8:	01412c23          	sw	s4,24(sp)
800019bc:	01512a23          	sw	s5,20(sp)
800019c0:	01612823          	sw	s6,16(sp)
800019c4:	01712623          	sw	s7,12(sp)
800019c8:	03010413          	addi	s0,sp,48
800019cc:	00003517          	auipc	a0,0x3
800019d0:	26050513          	addi	a0,a0,608 # 80004c2c <ticks_lock>
800019d4:	d70ff0ef          	jal	ra,80000f44 <acquire>
800019d8:	00003717          	auipc	a4,0x3
800019dc:	25870713          	addi	a4,a4,600 # 80004c30 <ticks>
800019e0:	00072783          	lw	a5,0(a4)
800019e4:	00178793          	addi	a5,a5,1
800019e8:	00f72023          	sw	a5,0(a4)
800019ec:	00003517          	auipc	a0,0x3
800019f0:	24050513          	addi	a0,a0,576 # 80004c2c <ticks_lock>
800019f4:	d94ff0ef          	jal	ra,80000f88 <release>
800019f8:	00002497          	auipc	s1,0x2
800019fc:	6e848493          	addi	s1,s1,1768 # 800040e0 <tasks+0xbc>
80001a00:	00003a17          	auipc	s4,0x3
80001a04:	2e0a0a13          	addi	s4,s4,736 # 80004ce0 <__bss_end+0xac>
80001a08:	00400993          	li	s3,4
80001a0c:	00003a97          	auipc	s5,0x3
80001a10:	224a8a93          	addi	s5,s5,548 # 80004c30 <ticks>
80001a14:	00002b97          	auipc	s7,0x2
80001a18:	880b8b93          	addi	s7,s7,-1920 # 80003294 <syscalls_table+0xec>
80001a1c:	00200b13          	li	s6,2
80001a20:	0140006f          	j	80001a34 <inc_ticks+0x94>
80001a24:	00090513          	mv	a0,s2
80001a28:	d60ff0ef          	jal	ra,80000f88 <release>
80001a2c:	0c048493          	addi	s1,s1,192
80001a30:	05448263          	beq	s1,s4,80001a74 <inc_ticks+0xd4>
80001a34:	00048913          	mv	s2,s1
80001a38:	00048513          	mv	a0,s1
80001a3c:	d08ff0ef          	jal	ra,80000f44 <acquire>
80001a40:	fa04a783          	lw	a5,-96(s1)
80001a44:	ff3790e3          	bne	a5,s3,80001a24 <inc_ticks+0x84>
80001a48:	ff84a783          	lw	a5,-8(s1)
80001a4c:	fd579ce3          	bne	a5,s5,80001a24 <inc_ticks+0x84>
80001a50:	ff04a783          	lw	a5,-16(s1)
80001a54:	fff78793          	addi	a5,a5,-1
80001a58:	fef4a823          	sw	a5,-16(s1)
80001a5c:	fc0794e3          	bnez	a5,80001a24 <inc_ticks+0x84>
80001a60:	f484a583          	lw	a1,-184(s1)
80001a64:	000b8513          	mv	a0,s7
80001a68:	960ff0ef          	jal	ra,80000bc8 <printf>
80001a6c:	fb64a023          	sw	s6,-96(s1)
80001a70:	fb5ff06f          	j	80001a24 <inc_ticks+0x84>
80001a74:	02c12083          	lw	ra,44(sp)
80001a78:	02812403          	lw	s0,40(sp)
80001a7c:	02412483          	lw	s1,36(sp)
80001a80:	02012903          	lw	s2,32(sp)
80001a84:	01c12983          	lw	s3,28(sp)
80001a88:	01812a03          	lw	s4,24(sp)
80001a8c:	01412a83          	lw	s5,20(sp)
80001a90:	01012b03          	lw	s6,16(sp)
80001a94:	00c12b83          	lw	s7,12(sp)
80001a98:	03010113          	addi	sp,sp,48
80001a9c:	00008067          	ret

80001aa0 <setup_main_args>:
80001aa0:	f0010113          	addi	sp,sp,-256
80001aa4:	0e112e23          	sw	ra,252(sp)
80001aa8:	0e812c23          	sw	s0,248(sp)
80001aac:	0e912a23          	sw	s1,244(sp)
80001ab0:	0f212823          	sw	s2,240(sp)
80001ab4:	0f312623          	sw	s3,236(sp)
80001ab8:	0f412423          	sw	s4,232(sp)
80001abc:	0f512223          	sw	s5,228(sp)
80001ac0:	0f612023          	sw	s6,224(sp)
80001ac4:	0d712e23          	sw	s7,220(sp)
80001ac8:	0d812c23          	sw	s8,216(sp)
80001acc:	10010413          	addi	s0,sp,256
80001ad0:	0a852b03          	lw	s6,168(a0)
80001ad4:	0e060463          	beqz	a2,80001bbc <setup_main_args+0x11c>
80001ad8:	00058493          	mv	s1,a1
80001adc:	00060913          	mv	s2,a2
80001ae0:	f0840b93          	addi	s7,s0,-248
80001ae4:	000b8a13          	mv	s4,s7
80001ae8:	00000a93          	li	s5,0
80001aec:	00000993          	li	s3,0
80001af0:	80000c37          	lui	s8,0x80000
80001af4:	00092503          	lw	a0,0(s2)
80001af8:	02050c63          	beqz	a0,80001b30 <setup_main_args+0x90>
80001afc:	804ff0ef          	jal	ra,80000b00 <strlen>
80001b00:	00150513          	addi	a0,a0,1
80001b04:	40a989b3          	sub	s3,s3,a0
80001b08:	413484b3          	sub	s1,s1,s3
80001b0c:	00092583          	lw	a1,0(s2)
80001b10:	00048513          	mv	a0,s1
80001b14:	82cff0ef          	jal	ra,80000b40 <strcpy>
80001b18:	413c07b3          	sub	a5,s8,s3
80001b1c:	00fa2023          	sw	a5,0(s4)
80001b20:	001a8a93          	addi	s5,s5,1
80001b24:	00490913          	addi	s2,s2,4
80001b28:	004a0a13          	addi	s4,s4,4
80001b2c:	fc9ff06f          	j	80001af4 <setup_main_args+0x54>
80001b30:	05505263          	blez	s5,80001b74 <setup_main_args+0xd4>
80001b34:	000a8593          	mv	a1,s5
80001b38:	002a9613          	slli	a2,s5,0x2
80001b3c:	01760633          	add	a2,a2,s7
80001b40:	000b8793          	mv	a5,s7
80001b44:	00098513          	mv	a0,s3
80001b48:	00400693          	li	a3,4
80001b4c:	417686b3          	sub	a3,a3,s7
80001b50:	413686b3          	sub	a3,a3,s3
80001b54:	00f68733          	add	a4,a3,a5
80001b58:	00e484b3          	add	s1,s1,a4
80001b5c:	0007a703          	lw	a4,0(a5)
80001b60:	00e48023          	sb	a4,0(s1)
80001b64:	00478793          	addi	a5,a5,4
80001b68:	fec796e3          	bne	a5,a2,80001b54 <setup_main_args+0xb4>
80001b6c:	00259793          	slli	a5,a1,0x2
80001b70:	40f509b3          	sub	s3,a0,a5
80001b74:	000017b7          	lui	a5,0x1
80001b78:	00fb0b33          	add	s6,s6,a5
80001b7c:	fb5b2423          	sw	s5,-88(s6)
80001b80:	80000537          	lui	a0,0x80000
80001b84:	41350533          	sub	a0,a0,s3
80001b88:	faab2623          	sw	a0,-84(s6)
80001b8c:	0fc12083          	lw	ra,252(sp)
80001b90:	0f812403          	lw	s0,248(sp)
80001b94:	0f412483          	lw	s1,244(sp)
80001b98:	0f012903          	lw	s2,240(sp)
80001b9c:	0ec12983          	lw	s3,236(sp)
80001ba0:	0e812a03          	lw	s4,232(sp)
80001ba4:	0e412a83          	lw	s5,228(sp)
80001ba8:	0e012b03          	lw	s6,224(sp)
80001bac:	0dc12b83          	lw	s7,220(sp)
80001bb0:	0d812c03          	lw	s8,216(sp)
80001bb4:	10010113          	addi	sp,sp,256
80001bb8:	00008067          	ret
80001bbc:	00000a93          	li	s5,0
80001bc0:	00000993          	li	s3,0
80001bc4:	fb1ff06f          	j	80001b74 <setup_main_args+0xd4>

80001bc8 <exec>:
80001bc8:	fc010113          	addi	sp,sp,-64
80001bcc:	02112e23          	sw	ra,60(sp)
80001bd0:	02812c23          	sw	s0,56(sp)
80001bd4:	02912a23          	sw	s1,52(sp)
80001bd8:	03212823          	sw	s2,48(sp)
80001bdc:	03312623          	sw	s3,44(sp)
80001be0:	03412423          	sw	s4,40(sp)
80001be4:	03512223          	sw	s5,36(sp)
80001be8:	03612023          	sw	s6,32(sp)
80001bec:	01712e23          	sw	s7,28(sp)
80001bf0:	01812c23          	sw	s8,24(sp)
80001bf4:	01912a23          	sw	s9,20(sp)
80001bf8:	01a12823          	sw	s10,16(sp)
80001bfc:	01b12623          	sw	s11,12(sp)
80001c00:	04010413          	addi	s0,sp,64
80001c04:	00050b93          	mv	s7,a0
80001c08:	00058493          	mv	s1,a1
80001c0c:	00060c93          	mv	s9,a2
80001c10:	0a852d03          	lw	s10,168(a0) # 800000a8 <__mem_end+0xf80000a8>
80001c14:	ce5fe0ef          	jal	ra,800008f8 <alloc_page>
80001c18:	00050a93          	mv	s5,a0
80001c1c:	06050063          	beqz	a0,80001c7c <exec+0xb4>
80001c20:	00001637          	lui	a2,0x1
80001c24:	00002597          	auipc	a1,0x2
80001c28:	2dc5a583          	lw	a1,732(a1) # 80003f00 <kernel_pgtbl>
80001c2c:	e9dfe0ef          	jal	ra,80000ac8 <memcpy>
80001c30:	00048513          	mv	a0,s1
80001c34:	c41fe0ef          	jal	ra,80000874 <efs_file>
80001c38:	00050993          	mv	s3,a0
80001c3c:	04050063          	beqz	a0,80001c7c <exec+0xb4>
80001c40:	00454783          	lbu	a5,4(a0)
80001c44:	02079c63          	bnez	a5,80001c7c <exec+0xb4>
80001c48:	00c52783          	lw	a5,12(a0)
80001c4c:	0e078063          	beqz	a5,80001d2c <exec+0x164>
80001c50:	00000a13          	li	s4,0
80001c54:	00000913          	li	s2,0
80001c58:	00001b37          	lui	s6,0x1
80001c5c:	00001c17          	auipc	s8,0x1
80001c60:	64cc0c13          	addi	s8,s8,1612 # 800032a8 <syscalls_table+0x100>
80001c64:	0a80006f          	j	80001d0c <exec+0x144>
80001c68:	00100693          	li	a3,1
80001c6c:	80000637          	lui	a2,0x80000
80001c70:	00000593          	li	a1,0
80001c74:	000a8513          	mv	a0,s5
80001c78:	6cc000ef          	jal	ra,80002344 <unmap_region>
80001c7c:	000a8513          	mv	a0,s5
80001c80:	ccdfe0ef          	jal	ra,8000094c <free_page>
80001c84:	00000513          	li	a0,0
80001c88:	03c12083          	lw	ra,60(sp)
80001c8c:	03812403          	lw	s0,56(sp)
80001c90:	03412483          	lw	s1,52(sp)
80001c94:	03012903          	lw	s2,48(sp)
80001c98:	02c12983          	lw	s3,44(sp)
80001c9c:	02812a03          	lw	s4,40(sp)
80001ca0:	02412a83          	lw	s5,36(sp)
80001ca4:	02012b03          	lw	s6,32(sp)
80001ca8:	01c12b83          	lw	s7,28(sp)
80001cac:	01812c03          	lw	s8,24(sp)
80001cb0:	01412c83          	lw	s9,20(sp)
80001cb4:	01012d03          	lw	s10,16(sp)
80001cb8:	00c12d83          	lw	s11,12(sp)
80001cbc:	04010113          	addi	sp,sp,64
80001cc0:	00008067          	ret
80001cc4:	0089a583          	lw	a1,8(s3)
80001cc8:	000d8613          	mv	a2,s11
80001ccc:	012585b3          	add	a1,a1,s2
80001cd0:	00048513          	mv	a0,s1
80001cd4:	df5fe0ef          	jal	ra,80000ac8 <memcpy>
80001cd8:	00048613          	mv	a2,s1
80001cdc:	000a0593          	mv	a1,s4
80001ce0:	000c0513          	mv	a0,s8
80001ce4:	ee5fe0ef          	jal	ra,80000bc8 <printf>
80001ce8:	01e00693          	li	a3,30
80001cec:	00048613          	mv	a2,s1
80001cf0:	000a0593          	mv	a1,s4
80001cf4:	000a8513          	mv	a0,s5
80001cf8:	871fe0ef          	jal	ra,80000568 <map_page>
80001cfc:	01b90933          	add	s2,s2,s11
80001d00:	016a0a33          	add	s4,s4,s6
80001d04:	00c9a783          	lw	a5,12(s3)
80001d08:	02f97263          	bgeu	s2,a5,80001d2c <exec+0x164>
80001d0c:	bedfe0ef          	jal	ra,800008f8 <alloc_page>
80001d10:	00050493          	mv	s1,a0
80001d14:	f4050ae3          	beqz	a0,80001c68 <exec+0xa0>
80001d18:	00c9ad83          	lw	s11,12(s3)
80001d1c:	412d8db3          	sub	s11,s11,s2
80001d20:	fbbb72e3          	bgeu	s6,s11,80001cc4 <exec+0xfc>
80001d24:	000b0d93          	mv	s11,s6
80001d28:	f9dff06f          	j	80001cc4 <exec+0xfc>
80001d2c:	bcdfe0ef          	jal	ra,800008f8 <alloc_page>
80001d30:	00050493          	mv	s1,a0
80001d34:	f40504e3          	beqz	a0,80001c7c <exec+0xb4>
80001d38:	01600693          	li	a3,22
80001d3c:	00048613          	mv	a2,s1
80001d40:	7ffff5b7          	lui	a1,0x7ffff
80001d44:	000a8513          	mv	a0,s5
80001d48:	821fe0ef          	jal	ra,80000568 <map_page>
80001d4c:	00001937          	lui	s2,0x1
80001d50:	000c8613          	mv	a2,s9
80001d54:	012485b3          	add	a1,s1,s2
80001d58:	000b8513          	mv	a0,s7
80001d5c:	d45ff0ef          	jal	ra,80001aa0 <setup_main_args>
80001d60:	00050493          	mv	s1,a0
80001d64:	012d07b3          	add	a5,s10,s2
80001d68:	fea78c23          	sb	a0,-8(a5) # ff8 <__kernel_start-0x7ffff008>
80001d6c:	00855713          	srli	a4,a0,0x8
80001d70:	fee78ca3          	sb	a4,-7(a5)
80001d74:	01055713          	srli	a4,a0,0x10
80001d78:	fee78d23          	sb	a4,-6(a5)
80001d7c:	01855713          	srli	a4,a0,0x18
80001d80:	fee78da3          	sb	a4,-5(a5)
80001d84:	fe078e23          	sb	zero,-4(a5)
80001d88:	fe078ea3          	sb	zero,-3(a5)
80001d8c:	fe078f23          	sb	zero,-2(a5)
80001d90:	fe078fa3          	sb	zero,-1(a5)
80001d94:	004ba783          	lw	a5,4(s7)
80001d98:	02078663          	beqz	a5,80001dc4 <exec+0x1fc>
80001d9c:	0b8ba503          	lw	a0,184(s7)
80001da0:	00002797          	auipc	a5,0x2
80001da4:	1607a783          	lw	a5,352(a5) # 80003f00 <kernel_pgtbl>
80001da8:	00f50e63          	beq	a0,a5,80001dc4 <exec+0x1fc>
80001dac:	00100693          	li	a3,1
80001db0:	80000637          	lui	a2,0x80000
80001db4:	00000593          	li	a1,0
80001db8:	58c000ef          	jal	ra,80002344 <unmap_region>
80001dbc:	0b8ba503          	lw	a0,184(s7)
80001dc0:	b8dfe0ef          	jal	ra,8000094c <free_page>
80001dc4:	0b5bac23          	sw	s5,184(s7)
80001dc8:	000017b7          	lui	a5,0x1
80001dcc:	f8478793          	addi	a5,a5,-124 # f84 <__kernel_start-0x7ffff07c>
80001dd0:	00fd07b3          	add	a5,s10,a5
80001dd4:	06fba823          	sw	a5,112(s7)
80001dd8:	00048513          	mv	a0,s1
80001ddc:	eadff06f          	j	80001c88 <exec+0xc0>

80001de0 <create_process>:
80001de0:	ff010113          	addi	sp,sp,-16
80001de4:	00112623          	sw	ra,12(sp)
80001de8:	00812423          	sw	s0,8(sp)
80001dec:	00912223          	sw	s1,4(sp)
80001df0:	01212023          	sw	s2,0(sp)
80001df4:	01010413          	addi	s0,sp,16
80001df8:	00050913          	mv	s2,a0
80001dfc:	fffff597          	auipc	a1,0xfffff
80001e00:	4f458593          	addi	a1,a1,1268 # 800012f0 <start_process>
80001e04:	d1cff0ef          	jal	ra,80001320 <create_task>
80001e08:	04050e63          	beqz	a0,80001e64 <create_process+0x84>
80001e0c:	00050493          	mv	s1,a0
80001e10:	00003717          	auipc	a4,0x3
80001e14:	e1470713          	addi	a4,a4,-492 # 80004c24 <last_pid>
80001e18:	00072783          	lw	a5,0(a4)
80001e1c:	00178793          	addi	a5,a5,1
80001e20:	00f72023          	sw	a5,0(a4)
80001e24:	00f52223          	sw	a5,4(a0)
80001e28:	00000613          	li	a2,0
80001e2c:	00090593          	mv	a1,s2
80001e30:	d99ff0ef          	jal	ra,80001bc8 <exec>
80001e34:	00050913          	mv	s2,a0
80001e38:	04050663          	beqz	a0,80001e84 <create_process+0xa4>
80001e3c:	00200793          	li	a5,2
80001e40:	04f4ae23          	sw	a5,92(s1)
80001e44:	00100913          	li	s2,1
80001e48:	00090513          	mv	a0,s2
80001e4c:	00c12083          	lw	ra,12(sp)
80001e50:	00812403          	lw	s0,8(sp)
80001e54:	00412483          	lw	s1,4(sp)
80001e58:	00012903          	lw	s2,0(sp)
80001e5c:	01010113          	addi	sp,sp,16
80001e60:	00008067          	ret
80001e64:	1ad00613          	li	a2,429
80001e68:	00001597          	auipc	a1,0x1
80001e6c:	37858593          	addi	a1,a1,888 # 800031e0 <syscalls_table+0x38>
80001e70:	00001517          	auipc	a0,0x1
80001e74:	45c50513          	addi	a0,a0,1116 # 800032cc <syscalls_table+0x124>
80001e78:	d51fe0ef          	jal	ra,80000bc8 <printf>
80001e7c:	10017073          	csrci	sstatus,2
80001e80:	0000006f          	j	80001e80 <create_process+0xa0>
80001e84:	0bc48513          	addi	a0,s1,188
80001e88:	900ff0ef          	jal	ra,80000f88 <release>
80001e8c:	fbdff06f          	j	80001e48 <create_process+0x68>

80001e90 <handle_device_interrupt>:
80001e90:	ff010113          	addi	sp,sp,-16
80001e94:	00112623          	sw	ra,12(sp)
80001e98:	00812423          	sw	s0,8(sp)
80001e9c:	01010413          	addi	s0,sp,16
80001ea0:	00001517          	auipc	a0,0x1
80001ea4:	46050513          	addi	a0,a0,1120 # 80003300 <syscalls_table+0x158>
80001ea8:	d21fe0ef          	jal	ra,80000bc8 <printf>
80001eac:	00c12083          	lw	ra,12(sp)
80001eb0:	00812403          	lw	s0,8(sp)
80001eb4:	01010113          	addi	sp,sp,16
80001eb8:	00008067          	ret

80001ebc <kernel_trap>:
80001ebc:	fe010113          	addi	sp,sp,-32
80001ec0:	00112e23          	sw	ra,28(sp)
80001ec4:	00812c23          	sw	s0,24(sp)
80001ec8:	00912a23          	sw	s1,20(sp)
80001ecc:	01212823          	sw	s2,16(sp)
80001ed0:	01312623          	sw	s3,12(sp)
80001ed4:	01412423          	sw	s4,8(sp)
80001ed8:	01512223          	sw	s5,4(sp)
80001edc:	02010413          	addi	s0,sp,32
80001ee0:	00020a93          	mv	s5,tp
80001ee4:	14202973          	csrr	s2,scause
80001ee8:	14102a73          	csrr	s4,sepc
80001eec:	100029f3          	csrr	s3,sstatus
80001ef0:	b98ff0ef          	jal	ra,80001288 <current_task>
80001ef4:	800007b7          	lui	a5,0x80000
80001ef8:	00178793          	addi	a5,a5,1 # 80000001 <__mem_end+0xf8000001>
80001efc:	02f90863          	beq	s2,a5,80001f2c <kernel_trap+0x70>
80001f00:	800007b7          	lui	a5,0x80000
80001f04:	00978793          	addi	a5,a5,9 # 80000009 <__mem_end+0xf8000009>
80001f08:	04f90a63          	beq	s2,a5,80001f5c <kernel_trap+0xa0>
80001f0c:	03b00613          	li	a2,59
80001f10:	00001597          	auipc	a1,0x1
80001f14:	41058593          	addi	a1,a1,1040 # 80003320 <syscalls_table+0x178>
80001f18:	00001517          	auipc	a0,0x1
80001f1c:	41050513          	addi	a0,a0,1040 # 80003328 <syscalls_table+0x180>
80001f20:	ca9fe0ef          	jal	ra,80000bc8 <printf>
80001f24:	10017073          	csrci	sstatus,2
80001f28:	0000006f          	j	80001f28 <kernel_trap+0x6c>
80001f2c:	00050493          	mv	s1,a0
80001f30:	020a8263          	beqz	s5,80001f54 <kernel_trap+0x98>
80001f34:	14417073          	csrci	sip,2
80001f38:	02048863          	beqz	s1,80001f68 <kernel_trap+0xac>
80001f3c:	0a44a783          	lw	a5,164(s1)
80001f40:	fff78793          	addi	a5,a5,-1
80001f44:	0af4a223          	sw	a5,164(s1)
80001f48:	02079063          	bnez	a5,80001f68 <kernel_trap+0xac>
80001f4c:	e70ff0ef          	jal	ra,800015bc <yield>
80001f50:	0180006f          	j	80001f68 <kernel_trap+0xac>
80001f54:	a4dff0ef          	jal	ra,800019a0 <inc_ticks>
80001f58:	fddff06f          	j	80001f34 <kernel_trap+0x78>
80001f5c:	00001517          	auipc	a0,0x1
80001f60:	3a450513          	addi	a0,a0,932 # 80003300 <syscalls_table+0x158>
80001f64:	c65fe0ef          	jal	ra,80000bc8 <printf>
80001f68:	141a1073          	csrw	sepc,s4
80001f6c:	10099073          	csrw	sstatus,s3
80001f70:	01c12083          	lw	ra,28(sp)
80001f74:	01812403          	lw	s0,24(sp)
80001f78:	01412483          	lw	s1,20(sp)
80001f7c:	01012903          	lw	s2,16(sp)
80001f80:	00c12983          	lw	s3,12(sp)
80001f84:	00812a03          	lw	s4,8(sp)
80001f88:	00412a83          	lw	s5,4(sp)
80001f8c:	02010113          	addi	sp,sp,32
80001f90:	00008067          	ret

80001f94 <return_to_user_mode>:
80001f94:	ff010113          	addi	sp,sp,-16
80001f98:	00112623          	sw	ra,12(sp)
80001f9c:	00812423          	sw	s0,8(sp)
80001fa0:	01010413          	addi	s0,sp,16
80001fa4:	ae4ff0ef          	jal	ra,80001288 <current_task>
80001fa8:	10017073          	csrci	sstatus,2
80001fac:	ffffe797          	auipc	a5,0xffffe
80001fb0:	28478793          	addi	a5,a5,644 # 80000230 <u_trap>
80001fb4:	10579073          	csrw	stvec,a5
80001fb8:	00001737          	lui	a4,0x1
80001fbc:	0a852783          	lw	a5,168(a0)
80001fc0:	00e787b3          	add	a5,a5,a4
80001fc4:	14079073          	csrw	sscratch,a5
80001fc8:	100027f3          	csrr	a5,sstatus
80001fcc:	eff7f793          	andi	a5,a5,-257
80001fd0:	0207e793          	ori	a5,a5,32
80001fd4:	10079073          	csrw	sstatus,a5
80001fd8:	0b852783          	lw	a5,184(a0)
80001fdc:	12000073          	sfence.vma
80001fe0:	00c7d793          	srli	a5,a5,0xc
80001fe4:	800006b7          	lui	a3,0x80000
80001fe8:	00d7e7b3          	or	a5,a5,a3
80001fec:	18079073          	csrw	satp,a5
80001ff0:	12000073          	sfence.vma
80001ff4:	0a852503          	lw	a0,168(a0)
80001ff8:	f8470713          	addi	a4,a4,-124 # f84 <__kernel_start-0x7ffff07c>
80001ffc:	00e50533          	add	a0,a0,a4
80002000:	ac0fe0ef          	jal	ra,800002c0 <u_trap_ret>
80002004:	00c12083          	lw	ra,12(sp)
80002008:	00812403          	lw	s0,8(sp)
8000200c:	01010113          	addi	sp,sp,16
80002010:	00008067          	ret

80002014 <user_trap>:
80002014:	fe010113          	addi	sp,sp,-32
80002018:	00112e23          	sw	ra,28(sp)
8000201c:	00812c23          	sw	s0,24(sp)
80002020:	00912a23          	sw	s1,20(sp)
80002024:	01212823          	sw	s2,16(sp)
80002028:	01312623          	sw	s3,12(sp)
8000202c:	01412423          	sw	s4,8(sp)
80002030:	01512223          	sw	s5,4(sp)
80002034:	02010413          	addi	s0,sp,32
80002038:	00020993          	mv	s3,tp
8000203c:	14202973          	csrr	s2,scause
80002040:	14102a73          	csrr	s4,sepc
80002044:	10002af3          	csrr	s5,sstatus
80002048:	143027f3          	csrr	a5,stval
8000204c:	a3cff0ef          	jal	ra,80001288 <current_task>
80002050:	0c050063          	beqz	a0,80002110 <user_trap+0xfc>
80002054:	00050493          	mv	s1,a0
80002058:	00452783          	lw	a5,4(a0)
8000205c:	0a078a63          	beqz	a5,80002110 <user_trap+0xfc>
80002060:	00002797          	auipc	a5,0x2
80002064:	ea07a783          	lw	a5,-352(a5) # 80003f00 <kernel_pgtbl>
80002068:	0b852703          	lw	a4,184(a0)
8000206c:	0af70263          	beq	a4,a5,80002110 <user_trap+0xfc>
80002070:	12000073          	sfence.vma
80002074:	00c7d793          	srli	a5,a5,0xc
80002078:	80000737          	lui	a4,0x80000
8000207c:	00e7e7b3          	or	a5,a5,a4
80002080:	18079073          	csrw	satp,a5
80002084:	12000073          	sfence.vma
80002088:	ffffe797          	auipc	a5,0xffffe
8000208c:	0a878793          	addi	a5,a5,168 # 80000130 <s_trap>
80002090:	10579073          	csrw	stvec,a5
80002094:	00f00793          	li	a5,15
80002098:	0927ec63          	bltu	a5,s2,80002130 <user_trap+0x11c>
8000209c:	00100793          	li	a5,1
800020a0:	0327f463          	bgeu	a5,s2,800020c8 <user_trap+0xb4>
800020a4:	012797b3          	sll	a5,a5,s2
800020a8:	0000b737          	lui	a4,0xb
800020ac:	0a070713          	addi	a4,a4,160 # b0a0 <__kernel_start-0x7fff4f60>
800020b0:	00e7f7b3          	and	a5,a5,a4
800020b4:	16079663          	bnez	a5,80002220 <user_trap+0x20c>
800020b8:	00800793          	li	a5,8
800020bc:	0ef90663          	beq	s2,a5,800021a8 <user_trap+0x194>
800020c0:	00200793          	li	a5,2
800020c4:	14f90263          	beq	s2,a5,80002208 <user_trap+0x1f4>
800020c8:	88dff0ef          	jal	ra,80001954 <get_ticks>
800020cc:	00050593          	mv	a1,a0
800020d0:	00848813          	addi	a6,s1,8
800020d4:	000a8793          	mv	a5,s5
800020d8:	000a0713          	mv	a4,s4
800020dc:	00090693          	mv	a3,s2
800020e0:	00098613          	mv	a2,s3
800020e4:	00001517          	auipc	a0,0x1
800020e8:	2d450513          	addi	a0,a0,724 # 800033b8 <syscalls_table+0x210>
800020ec:	addfe0ef          	jal	ra,80000bc8 <printf>
800020f0:	0ae00613          	li	a2,174
800020f4:	00001597          	auipc	a1,0x1
800020f8:	22c58593          	addi	a1,a1,556 # 80003320 <syscalls_table+0x178>
800020fc:	00001517          	auipc	a0,0x1
80002100:	30050513          	addi	a0,a0,768 # 800033fc <syscalls_table+0x254>
80002104:	ac5fe0ef          	jal	ra,80000bc8 <printf>
80002108:	10017073          	csrci	sstatus,2
8000210c:	0000006f          	j	8000210c <user_trap+0xf8>
80002110:	07a00613          	li	a2,122
80002114:	00001597          	auipc	a1,0x1
80002118:	20c58593          	addi	a1,a1,524 # 80003320 <syscalls_table+0x178>
8000211c:	00001517          	auipc	a0,0x1
80002120:	23c50513          	addi	a0,a0,572 # 80003358 <syscalls_table+0x1b0>
80002124:	aa5fe0ef          	jal	ra,80000bc8 <printf>
80002128:	10017073          	csrci	sstatus,2
8000212c:	0000006f          	j	8000212c <user_trap+0x118>
80002130:	800007b7          	lui	a5,0x80000
80002134:	00178793          	addi	a5,a5,1 # 80000001 <__mem_end+0xf8000001>
80002138:	04f90463          	beq	s2,a5,80002180 <user_trap+0x16c>
8000213c:	800007b7          	lui	a5,0x80000
80002140:	00978793          	addi	a5,a5,9 # 80000009 <__mem_end+0xf8000009>
80002144:	f8f912e3          	bne	s2,a5,800020c8 <user_trap+0xb4>
80002148:	00001517          	auipc	a0,0x1
8000214c:	1b850513          	addi	a0,a0,440 # 80003300 <syscalls_table+0x158>
80002150:	a79fe0ef          	jal	ra,80000bc8 <printf>
80002154:	0644a783          	lw	a5,100(s1)
80002158:	0c079a63          	bnez	a5,8000222c <user_trap+0x218>
8000215c:	e39ff0ef          	jal	ra,80001f94 <return_to_user_mode>
80002160:	0b600613          	li	a2,182
80002164:	00001597          	auipc	a1,0x1
80002168:	1bc58593          	addi	a1,a1,444 # 80003320 <syscalls_table+0x178>
8000216c:	00001517          	auipc	a0,0x1
80002170:	2b450513          	addi	a0,a0,692 # 80003420 <syscalls_table+0x278>
80002174:	a55fe0ef          	jal	ra,80000bc8 <printf>
80002178:	10017073          	csrci	sstatus,2
8000217c:	0000006f          	j	8000217c <user_trap+0x168>
80002180:	02098063          	beqz	s3,800021a0 <user_trap+0x18c>
80002184:	14417073          	csrci	sip,2
80002188:	0a44a783          	lw	a5,164(s1)
8000218c:	fff78793          	addi	a5,a5,-1
80002190:	0af4a223          	sw	a5,164(s1)
80002194:	fc0790e3          	bnez	a5,80002154 <user_trap+0x140>
80002198:	c24ff0ef          	jal	ra,800015bc <yield>
8000219c:	fb9ff06f          	j	80002154 <user_trap+0x140>
800021a0:	801ff0ef          	jal	ra,800019a0 <inc_ticks>
800021a4:	fe1ff06f          	j	80002184 <user_trap+0x170>
800021a8:	10016073          	csrsi	sstatus,2
800021ac:	f5dfe0ef          	jal	ra,80001108 <syscall>
800021b0:	0a84a703          	lw	a4,168(s1)
800021b4:	000017b7          	lui	a5,0x1
800021b8:	00f70733          	add	a4,a4,a5
800021bc:	ffc74683          	lbu	a3,-4(a4)
800021c0:	ffd74783          	lbu	a5,-3(a4)
800021c4:	00879793          	slli	a5,a5,0x8
800021c8:	00d7e7b3          	or	a5,a5,a3
800021cc:	ffe74683          	lbu	a3,-2(a4)
800021d0:	01069693          	slli	a3,a3,0x10
800021d4:	00f6e6b3          	or	a3,a3,a5
800021d8:	fff74783          	lbu	a5,-1(a4)
800021dc:	01879793          	slli	a5,a5,0x18
800021e0:	00d7e7b3          	or	a5,a5,a3
800021e4:	00478793          	addi	a5,a5,4 # 1004 <__kernel_start-0x7fffeffc>
800021e8:	fef70e23          	sb	a5,-4(a4)
800021ec:	0087d693          	srli	a3,a5,0x8
800021f0:	fed70ea3          	sb	a3,-3(a4)
800021f4:	0107d693          	srli	a3,a5,0x10
800021f8:	fed70f23          	sb	a3,-2(a4)
800021fc:	0187d793          	srli	a5,a5,0x18
80002200:	fef70fa3          	sb	a5,-1(a4)
80002204:	f51ff06f          	j	80002154 <user_trap+0x140>
80002208:	000a0693          	mv	a3,s4
8000220c:	00098613          	mv	a2,s3
80002210:	00850593          	addi	a1,a0,8
80002214:	00001517          	auipc	a0,0x1
80002218:	17050513          	addi	a0,a0,368 # 80003384 <syscalls_table+0x1dc>
8000221c:	9adfe0ef          	jal	ra,80000bc8 <printf>
80002220:	00100793          	li	a5,1
80002224:	06f4a423          	sw	a5,104(s1)
80002228:	06f4a223          	sw	a5,100(s1)
8000222c:	eacff0ef          	jal	ra,800018d8 <terminate>
80002230:	f2dff06f          	j	8000215c <user_trap+0x148>

80002234 <init_vm>:
80002234:	ff010113          	addi	sp,sp,-16
80002238:	00112623          	sw	ra,12(sp)
8000223c:	00812423          	sw	s0,8(sp)
80002240:	01010413          	addi	s0,sp,16
80002244:	eb4fe0ef          	jal	ra,800008f8 <alloc_page>
80002248:	00002717          	auipc	a4,0x2
8000224c:	caa72c23          	sw	a0,-840(a4) # 80003f00 <kernel_pgtbl>
80002250:	c34fe0ef          	jal	ra,80000684 <map_kernel_memory>
80002254:	00c12083          	lw	ra,12(sp)
80002258:	00812403          	lw	s0,8(sp)
8000225c:	01010113          	addi	sp,sp,16
80002260:	00008067          	ret

80002264 <map_region>:
80002264:	fe010113          	addi	sp,sp,-32
80002268:	00112e23          	sw	ra,28(sp)
8000226c:	00812c23          	sw	s0,24(sp)
80002270:	00912a23          	sw	s1,20(sp)
80002274:	01212823          	sw	s2,16(sp)
80002278:	01312623          	sw	s3,12(sp)
8000227c:	01412423          	sw	s4,8(sp)
80002280:	01512223          	sw	s5,4(sp)
80002284:	01612023          	sw	s6,0(sp)
80002288:	02010413          	addi	s0,sp,32
8000228c:	c005f793          	andi	a5,a1,-1024
80002290:	06b79663          	bne	a5,a1,800022fc <map_region+0x98>
80002294:	00050a13          	mv	s4,a0
80002298:	00070a93          	mv	s5,a4
8000229c:	c0067793          	andi	a5,a2,-1024
800022a0:	08c79063          	bne	a5,a2,80002320 <map_region+0xbc>
800022a4:	00d609b3          	add	s3,a2,a3
800022a8:	00060493          	mv	s1,a2
800022ac:	40c58933          	sub	s2,a1,a2
800022b0:	00001b37          	lui	s6,0x1
800022b4:	03367063          	bgeu	a2,s3,800022d4 <map_region+0x70>
800022b8:	000a8693          	mv	a3,s5
800022bc:	00048613          	mv	a2,s1
800022c0:	009905b3          	add	a1,s2,s1
800022c4:	000a0513          	mv	a0,s4
800022c8:	aa0fe0ef          	jal	ra,80000568 <map_page>
800022cc:	016484b3          	add	s1,s1,s6
800022d0:	ff34e4e3          	bltu	s1,s3,800022b8 <map_region+0x54>
800022d4:	01c12083          	lw	ra,28(sp)
800022d8:	01812403          	lw	s0,24(sp)
800022dc:	01412483          	lw	s1,20(sp)
800022e0:	01012903          	lw	s2,16(sp)
800022e4:	00c12983          	lw	s3,12(sp)
800022e8:	00812a03          	lw	s4,8(sp)
800022ec:	00412a83          	lw	s5,4(sp)
800022f0:	00012b03          	lw	s6,0(sp)
800022f4:	02010113          	addi	sp,sp,32
800022f8:	00008067          	ret
800022fc:	00058693          	mv	a3,a1
80002300:	01100613          	li	a2,17
80002304:	00001597          	auipc	a1,0x1
80002308:	14858593          	addi	a1,a1,328 # 8000344c <syscalls_table+0x2a4>
8000230c:	00001517          	auipc	a0,0x1
80002310:	14850513          	addi	a0,a0,328 # 80003454 <syscalls_table+0x2ac>
80002314:	8b5fe0ef          	jal	ra,80000bc8 <printf>
80002318:	10017073          	csrci	sstatus,2
8000231c:	0000006f          	j	8000231c <map_region+0xb8>
80002320:	00060693          	mv	a3,a2
80002324:	01300613          	li	a2,19
80002328:	00001597          	auipc	a1,0x1
8000232c:	12458593          	addi	a1,a1,292 # 8000344c <syscalls_table+0x2a4>
80002330:	00001517          	auipc	a0,0x1
80002334:	15450513          	addi	a0,a0,340 # 80003484 <syscalls_table+0x2dc>
80002338:	891fe0ef          	jal	ra,80000bc8 <printf>
8000233c:	10017073          	csrci	sstatus,2
80002340:	0000006f          	j	80002340 <map_region+0xdc>

80002344 <unmap_region>:
80002344:	fe010113          	addi	sp,sp,-32
80002348:	00112e23          	sw	ra,28(sp)
8000234c:	00812c23          	sw	s0,24(sp)
80002350:	00912a23          	sw	s1,20(sp)
80002354:	01212823          	sw	s2,16(sp)
80002358:	01312623          	sw	s3,12(sp)
8000235c:	01412423          	sw	s4,8(sp)
80002360:	01512223          	sw	s5,4(sp)
80002364:	02010413          	addi	s0,sp,32
80002368:	00058493          	mv	s1,a1
8000236c:	c005f793          	andi	a5,a1,-1024
80002370:	04b79a63          	bne	a5,a1,800023c4 <unmap_region+0x80>
80002374:	00050993          	mv	s3,a0
80002378:	00068a13          	mv	s4,a3
8000237c:	00c58933          	add	s2,a1,a2
80002380:	00001ab7          	lui	s5,0x1
80002384:	0125fe63          	bgeu	a1,s2,800023a0 <unmap_region+0x5c>
80002388:	000a0613          	mv	a2,s4
8000238c:	00048593          	mv	a1,s1
80002390:	00098513          	mv	a0,s3
80002394:	a28fe0ef          	jal	ra,800005bc <unmap_page>
80002398:	015484b3          	add	s1,s1,s5
8000239c:	ff24e6e3          	bltu	s1,s2,80002388 <unmap_region+0x44>
800023a0:	01c12083          	lw	ra,28(sp)
800023a4:	01812403          	lw	s0,24(sp)
800023a8:	01412483          	lw	s1,20(sp)
800023ac:	01012903          	lw	s2,16(sp)
800023b0:	00c12983          	lw	s3,12(sp)
800023b4:	00812a03          	lw	s4,8(sp)
800023b8:	00412a83          	lw	s5,4(sp)
800023bc:	02010113          	addi	sp,sp,32
800023c0:	00008067          	ret
800023c4:	00058693          	mv	a3,a1
800023c8:	01f00613          	li	a2,31
800023cc:	00001597          	auipc	a1,0x1
800023d0:	08058593          	addi	a1,a1,128 # 8000344c <syscalls_table+0x2a4>
800023d4:	00001517          	auipc	a0,0x1
800023d8:	08050513          	addi	a0,a0,128 # 80003454 <syscalls_table+0x2ac>
800023dc:	fecfe0ef          	jal	ra,80000bc8 <printf>
800023e0:	10017073          	csrci	sstatus,2
800023e4:	0000006f          	j	800023e4 <unmap_region+0xa0>
	...
