
Memory Configuration

Name             Origin             Length             Attributes
*default*        0x0000000000000000 0xffffffffffffffff

Linker script and memory map

LOAD /var/folders/w4/s3c6b8t56yb0f0qx4n2cc2f00000gn/T//cciNMjjE.o
LOAD /var/folders/w4/s3c6b8t56yb0f0qx4n2cc2f00000gn/T//ccVhM5cG.o
LOAD /var/folders/w4/s3c6b8t56yb0f0qx4n2cc2f00000gn/T//ccsXVrsi.o
LOAD /var/folders/w4/s3c6b8t56yb0f0qx4n2cc2f00000gn/T//ccriOeL3.o
LOAD /var/folders/w4/s3c6b8t56yb0f0qx4n2cc2f00000gn/T//ccDOml0S.o
LOAD /var/folders/w4/s3c6b8t56yb0f0qx4n2cc2f00000gn/T//cczOlSr5.o
LOAD /var/folders/w4/s3c6b8t56yb0f0qx4n2cc2f00000gn/T//ccTB9uYj.o
LOAD /var/folders/w4/s3c6b8t56yb0f0qx4n2cc2f00000gn/T//ccBURFlO.o
LOAD /var/folders/w4/s3c6b8t56yb0f0qx4n2cc2f00000gn/T//ccvvHokI.o
LOAD /var/folders/w4/s3c6b8t56yb0f0qx4n2cc2f00000gn/T//ccnxy8QU.o
LOAD /var/folders/w4/s3c6b8t56yb0f0qx4n2cc2f00000gn/T//ccbbcwrX.o
LOAD /var/folders/w4/s3c6b8t56yb0f0qx4n2cc2f00000gn/T//ccjXhJqY.o
LOAD /var/folders/w4/s3c6b8t56yb0f0qx4n2cc2f00000gn/T//ccNBgTGZ.o
LOAD /var/folders/w4/s3c6b8t56yb0f0qx4n2cc2f00000gn/T//ccSV5cqo.o
                0x0000000080000000                . = 0x80000000
                0x0000000080000000                __kernel_start = .

.text           0x0000000080000000     0x3000
 *(.text.boot)
 *(.text .text.*)
 .text          0x0000000080000000      0x124 /var/folders/w4/s3c6b8t56yb0f0qx4n2cc2f00000gn/T//cciNMjjE.o
                0x0000000080000000                boot
                0x00000000800000b0                context_switch
 *fill*         0x0000000080000124        0xc 
 .text          0x0000000080000130      0x2a4 /var/folders/w4/s3c6b8t56yb0f0qx4n2cc2f00000gn/T//ccVhM5cG.o
                0x0000000080000130                s_trap
                0x0000000080000230                u_trap
                0x00000000800002c0                u_trap_ret
                0x0000000080000350                m_trap
 .text          0x00000000800003d4      0x39c /var/folders/w4/s3c6b8t56yb0f0qx4n2cc2f00000gn/T//ccsXVrsi.o
                0x0000000080000488                next_timer_interrupt
                0x00000000800004d0                init_external_interrupts
                0x00000000800004f4                init_external_irqs_in_cpu
                0x0000000080000530                enable_paging
                0x0000000080000568                map_page
                0x00000000800005bc                unmap_page
                0x0000000080000618                va2kernel_address
                0x0000000080000684                map_kernel_memory
 .text          0x0000000080000770      0x104 /var/folders/w4/s3c6b8t56yb0f0qx4n2cc2f00000gn/T//ccriOeL3.o
                0x0000000080000770                console_init
                0x0000000080000790                console_putc
                0x00000000800007c0                console_puts
                0x000000008000081c                console_read_char
 .text          0x0000000080000874       0x84 /var/folders/w4/s3c6b8t56yb0f0qx4n2cc2f00000gn/T//ccDOml0S.o
                0x0000000080000874                efs_file
 .text          0x00000000800008f8        0x0 /var/folders/w4/s3c6b8t56yb0f0qx4n2cc2f00000gn/T//cczOlSr5.o
 .text          0x00000000800008f8      0x1a0 /var/folders/w4/s3c6b8t56yb0f0qx4n2cc2f00000gn/T//ccTB9uYj.o
                0x00000000800008f8                alloc_page
                0x000000008000094c                free_page
                0x00000000800009f8                init_kalloc
 .text          0x0000000080000a98      0x340 /var/folders/w4/s3c6b8t56yb0f0qx4n2cc2f00000gn/T//ccBURFlO.o
                0x0000000080000a98                memset
                0x0000000080000ac8                memcpy
                0x0000000080000b00                strlen
                0x0000000080000b40                strcpy
                0x0000000080000b84                strcmp
                0x0000000080000bc8                printf
 .text          0x0000000080000dd8       0x7c /var/folders/w4/s3c6b8t56yb0f0qx4n2cc2f00000gn/T//ccvvHokI.o
                0x0000000080000dd8                kernel_main
 .text          0x0000000080000e54      0x164 /var/folders/w4/s3c6b8t56yb0f0qx4n2cc2f00000gn/T//ccnxy8QU.o
                0x0000000080000e54                push_irq_off
                0x0000000080000edc                pop_irq_off
                0x0000000080000f44                acquire
                0x0000000080000f88                release
 .text          0x0000000080000fb8      0x200 /var/folders/w4/s3c6b8t56yb0f0qx4n2cc2f00000gn/T//ccbbcwrX.o
                0x0000000080000fb8                sys_exit
                0x0000000080000ff0                sys_getpid
                0x000000008000100c                sys_console_puts
                0x0000000080001058                sys_console_putc
                0x0000000080001090                sys_console_getc
                0x00000000800010b4                sys_sleep
                0x0000000080001108                syscall
 .text          0x00000000800011b8      0xcd8 /var/folders/w4/s3c6b8t56yb0f0qx4n2cc2f00000gn/T//ccjXhJqY.o
                0x0000000080001238                init_tasks
                0x0000000080001288                current_task
                0x00000000800012c0                init_task
                0x0000000080001320                create_task
                0x0000000080001488                free_resources
                0x00000000800014d0                scheduler
                0x00000000800015bc                yield
                0x0000000080001654                suspend
                0x00000000800016e0                wakeup
                0x00000000800017bc                sleep
                0x000000008000184c                wait_for_task
                0x00000000800018d8                terminate
                0x0000000080001954                get_ticks
                0x00000000800019a0                inc_ticks
                0x0000000080001aa0                setup_main_args
                0x0000000080001bc8                exec
                0x0000000080001de0                create_process
 .text          0x0000000080001e90      0x3a4 /var/folders/w4/s3c6b8t56yb0f0qx4n2cc2f00000gn/T//ccNBgTGZ.o
                0x0000000080001e90                handle_device_interrupt
                0x0000000080001ebc                kernel_trap
                0x0000000080001f94                return_to_user_mode
                0x0000000080002014                user_trap
 .text          0x0000000080002234      0x1b4 /var/folders/w4/s3c6b8t56yb0f0qx4n2cc2f00000gn/T//ccSV5cqo.o
                0x0000000080002234                init_vm
                0x0000000080002264                map_region
                0x0000000080002344                unmap_region
                0x0000000080003000                . = ALIGN (0x1000)
 *fill*         0x00000000800023e8      0xc18 
                0x0000000080003000                __text_end = .

.rodata         0x0000000080003000      0x4b3
 *(.rodata .rodata.*)
 .rodata.str1.4
                0x0000000080003000       0x75 /var/folders/w4/s3c6b8t56yb0f0qx4n2cc2f00000gn/T//ccsXVrsi.o
 *fill*         0x0000000080003075        0x3 
 .rodata.str1.4
                0x0000000080003078       0x17 /var/folders/w4/s3c6b8t56yb0f0qx4n2cc2f00000gn/T//cczOlSr5.o
 *fill*         0x000000008000308f        0x1 
 .rodata.str1.4
                0x0000000080003090       0xc6 /var/folders/w4/s3c6b8t56yb0f0qx4n2cc2f00000gn/T//ccTB9uYj.o
 *fill*         0x0000000080003156        0x2 
 .rodata.str1.4
                0x0000000080003158       0x11 /var/folders/w4/s3c6b8t56yb0f0qx4n2cc2f00000gn/T//ccBURFlO.o
 *fill*         0x0000000080003169        0x3 
 .rodata.str1.4
                0x000000008000316c       0x1d /var/folders/w4/s3c6b8t56yb0f0qx4n2cc2f00000gn/T//ccvvHokI.o
                                         0x25 (size before relaxing)
 *fill*         0x0000000080003189        0x3 
 .rodata.str1.4
                0x000000008000318c       0x1c /var/folders/w4/s3c6b8t56yb0f0qx4n2cc2f00000gn/T//ccbbcwrX.o
 .rodata        0x00000000800031a8       0x18 /var/folders/w4/s3c6b8t56yb0f0qx4n2cc2f00000gn/T//ccbbcwrX.o
 .rodata.str1.4
                0x00000000800031c0      0x13f /var/folders/w4/s3c6b8t56yb0f0qx4n2cc2f00000gn/T//ccjXhJqY.o
 *fill*         0x00000000800032ff        0x1 
 .rodata.str1.4
                0x0000000080003300      0x14c /var/folders/w4/s3c6b8t56yb0f0qx4n2cc2f00000gn/T//ccNBgTGZ.o
 .rodata.str1.4
                0x000000008000344c       0x67 /var/folders/w4/s3c6b8t56yb0f0qx4n2cc2f00000gn/T//ccSV5cqo.o

.srodata        0x00000000800034b4        0xc
 .srodata       0x00000000800034b4        0xc /var/folders/w4/s3c6b8t56yb0f0qx4n2cc2f00000gn/T//cczOlSr5.o
                0x00000000800034b4                README_len
                0x00000000800034b8                init_bin_len
                0x00000000800034bc                idle_bin_len

.rela.dyn       0x00000000800034c0        0x0
 .rela.text     0x00000000800034c0        0x0 /var/folders/w4/s3c6b8t56yb0f0qx4n2cc2f00000gn/T//cciNMjjE.o

.data           0x00000000800034c0      0xa3d
 *(.data .data.*)
 .data          0x00000000800034c0        0x0 /var/folders/w4/s3c6b8t56yb0f0qx4n2cc2f00000gn/T//cciNMjjE.o
 .data          0x00000000800034c0        0x0 /var/folders/w4/s3c6b8t56yb0f0qx4n2cc2f00000gn/T//ccVhM5cG.o
 .data          0x00000000800034c0        0x0 /var/folders/w4/s3c6b8t56yb0f0qx4n2cc2f00000gn/T//ccsXVrsi.o
 .data          0x00000000800034c0        0x0 /var/folders/w4/s3c6b8t56yb0f0qx4n2cc2f00000gn/T//ccriOeL3.o
 .data          0x00000000800034c0        0x0 /var/folders/w4/s3c6b8t56yb0f0qx4n2cc2f00000gn/T//ccDOml0S.o
 .data          0x00000000800034c0      0xa3d /var/folders/w4/s3c6b8t56yb0f0qx4n2cc2f00000gn/T//cczOlSr5.o
                0x00000000800034c0                efs_files_table
                0x0000000080003500                README
                0x00000000800035d8                init_bin
                0x0000000080003aac                idle_bin
 .data          0x0000000080003efd        0x0 /var/folders/w4/s3c6b8t56yb0f0qx4n2cc2f00000gn/T//ccTB9uYj.o
 .data          0x0000000080003efd        0x0 /var/folders/w4/s3c6b8t56yb0f0qx4n2cc2f00000gn/T//ccBURFlO.o
 .data          0x0000000080003efd        0x0 /var/folders/w4/s3c6b8t56yb0f0qx4n2cc2f00000gn/T//ccvvHokI.o
 .data          0x0000000080003efd        0x0 /var/folders/w4/s3c6b8t56yb0f0qx4n2cc2f00000gn/T//ccnxy8QU.o
 .data          0x0000000080003efd        0x0 /var/folders/w4/s3c6b8t56yb0f0qx4n2cc2f00000gn/T//ccbbcwrX.o
 .data          0x0000000080003efd        0x0 /var/folders/w4/s3c6b8t56yb0f0qx4n2cc2f00000gn/T//ccjXhJqY.o
 .data          0x0000000080003efd        0x0 /var/folders/w4/s3c6b8t56yb0f0qx4n2cc2f00000gn/T//ccNBgTGZ.o
 .data          0x0000000080003efd        0x0 /var/folders/w4/s3c6b8t56yb0f0qx4n2cc2f00000gn/T//ccSV5cqo.o

.bss            0x0000000080003f00      0xd34
                0x0000000080003f00                __bss = .
 *(.bss .bss.* .sbss .sbss.*)
 .bss           0x0000000080003f00        0x0 /var/folders/w4/s3c6b8t56yb0f0qx4n2cc2f00000gn/T//cciNMjjE.o
 .bss           0x0000000080003f00        0x0 /var/folders/w4/s3c6b8t56yb0f0qx4n2cc2f00000gn/T//ccVhM5cG.o
 .bss           0x0000000080003f00        0x0 /var/folders/w4/s3c6b8t56yb0f0qx4n2cc2f00000gn/T//ccsXVrsi.o
 .sbss          0x0000000080003f00        0x4 /var/folders/w4/s3c6b8t56yb0f0qx4n2cc2f00000gn/T//ccsXVrsi.o
                0x0000000080003f00                kernel_pgtbl
 .bss           0x0000000080003f04        0x0 /var/folders/w4/s3c6b8t56yb0f0qx4n2cc2f00000gn/T//ccriOeL3.o
 .sbss          0x0000000080003f04        0x4 /var/folders/w4/s3c6b8t56yb0f0qx4n2cc2f00000gn/T//ccriOeL3.o
                0x0000000080003f04                console_lock
 .bss           0x0000000080003f08        0x0 /var/folders/w4/s3c6b8t56yb0f0qx4n2cc2f00000gn/T//ccDOml0S.o
 .bss           0x0000000080003f08        0x0 /var/folders/w4/s3c6b8t56yb0f0qx4n2cc2f00000gn/T//cczOlSr5.o
 .bss           0x0000000080003f08        0x0 /var/folders/w4/s3c6b8t56yb0f0qx4n2cc2f00000gn/T//ccTB9uYj.o
 .sbss          0x0000000080003f08        0x8 /var/folders/w4/s3c6b8t56yb0f0qx4n2cc2f00000gn/T//ccTB9uYj.o
 .bss           0x0000000080003f10        0x0 /var/folders/w4/s3c6b8t56yb0f0qx4n2cc2f00000gn/T//ccBURFlO.o
 .bss           0x0000000080003f10        0x0 /var/folders/w4/s3c6b8t56yb0f0qx4n2cc2f00000gn/T//ccvvHokI.o
 .sbss          0x0000000080003f10        0x4 /var/folders/w4/s3c6b8t56yb0f0qx4n2cc2f00000gn/T//ccvvHokI.o
 .bss           0x0000000080003f14        0x0 /var/folders/w4/s3c6b8t56yb0f0qx4n2cc2f00000gn/T//ccnxy8QU.o
 .bss           0x0000000080003f14        0x0 /var/folders/w4/s3c6b8t56yb0f0qx4n2cc2f00000gn/T//ccbbcwrX.o
 .bss           0x0000000080003f14      0xd10 /var/folders/w4/s3c6b8t56yb0f0qx4n2cc2f00000gn/T//ccjXhJqY.o
                0x0000000080003f14                cpus_state
 .sbss          0x0000000080004c24       0x10 /var/folders/w4/s3c6b8t56yb0f0qx4n2cc2f00000gn/T//ccjXhJqY.o
                0x0000000080004c2c                ticks_lock
                0x0000000080004c30                ticks
 .bss           0x0000000080004c34        0x0 /var/folders/w4/s3c6b8t56yb0f0qx4n2cc2f00000gn/T//ccNBgTGZ.o
 .bss           0x0000000080004c34        0x0 /var/folders/w4/s3c6b8t56yb0f0qx4n2cc2f00000gn/T//ccSV5cqo.o
                0x0000000080004c34                __bss_end = .
                0x0000000080005000                . = ALIGN (0x1000)
                0x0000000080005000                __stack0 = .
                0x0000000080009000                . = (. + 0x4000)
                0x0000000080009000                __kernel_end = .
                0x0000000088000000                . = 0x88000000
                0x0000000088000000                __mem_end = .
OUTPUT(kernel elf32-littleriscv)

.riscv.attributes
                0x0000000000000000       0x2a
 .riscv.attributes
                0x0000000000000000       0x28 /var/folders/w4/s3c6b8t56yb0f0qx4n2cc2f00000gn/T//cciNMjjE.o
 .riscv.attributes
                0x0000000000000028       0x28 /var/folders/w4/s3c6b8t56yb0f0qx4n2cc2f00000gn/T//ccVhM5cG.o
 .riscv.attributes
                0x0000000000000050       0x2a /var/folders/w4/s3c6b8t56yb0f0qx4n2cc2f00000gn/T//ccsXVrsi.o
 .riscv.attributes
                0x000000000000007a       0x26 /var/folders/w4/s3c6b8t56yb0f0qx4n2cc2f00000gn/T//ccriOeL3.o
 .riscv.attributes
                0x00000000000000a0       0x26 /var/folders/w4/s3c6b8t56yb0f0qx4n2cc2f00000gn/T//ccDOml0S.o
 .riscv.attributes
                0x00000000000000c6       0x26 /var/folders/w4/s3c6b8t56yb0f0qx4n2cc2f00000gn/T//cczOlSr5.o
 .riscv.attributes
                0x00000000000000ec       0x2a /var/folders/w4/s3c6b8t56yb0f0qx4n2cc2f00000gn/T//ccTB9uYj.o
 .riscv.attributes
                0x0000000000000116       0x26 /var/folders/w4/s3c6b8t56yb0f0qx4n2cc2f00000gn/T//ccBURFlO.o
 .riscv.attributes
                0x000000000000013c       0x26 /var/folders/w4/s3c6b8t56yb0f0qx4n2cc2f00000gn/T//ccvvHokI.o
 .riscv.attributes
                0x0000000000000162       0x2a /var/folders/w4/s3c6b8t56yb0f0qx4n2cc2f00000gn/T//ccnxy8QU.o
 .riscv.attributes
                0x000000000000018c       0x26 /var/folders/w4/s3c6b8t56yb0f0qx4n2cc2f00000gn/T//ccbbcwrX.o
 .riscv.attributes
                0x00000000000001b2       0x2a /var/folders/w4/s3c6b8t56yb0f0qx4n2cc2f00000gn/T//ccjXhJqY.o
 .riscv.attributes
                0x00000000000001dc       0x2a /var/folders/w4/s3c6b8t56yb0f0qx4n2cc2f00000gn/T//ccNBgTGZ.o
 .riscv.attributes
                0x0000000000000206       0x2a /var/folders/w4/s3c6b8t56yb0f0qx4n2cc2f00000gn/T//ccSV5cqo.o

.comment        0x0000000000000000       0x21
 .comment       0x0000000000000000       0x21 /var/folders/w4/s3c6b8t56yb0f0qx4n2cc2f00000gn/T//ccsXVrsi.o
                                         0x22 (size before relaxing)
 .comment       0x0000000000000021       0x22 /var/folders/w4/s3c6b8t56yb0f0qx4n2cc2f00000gn/T//ccriOeL3.o
 .comment       0x0000000000000021       0x22 /var/folders/w4/s3c6b8t56yb0f0qx4n2cc2f00000gn/T//ccDOml0S.o
 .comment       0x0000000000000021       0x22 /var/folders/w4/s3c6b8t56yb0f0qx4n2cc2f00000gn/T//cczOlSr5.o
 .comment       0x0000000000000021       0x22 /var/folders/w4/s3c6b8t56yb0f0qx4n2cc2f00000gn/T//ccTB9uYj.o
 .comment       0x0000000000000021       0x22 /var/folders/w4/s3c6b8t56yb0f0qx4n2cc2f00000gn/T//ccBURFlO.o
 .comment       0x0000000000000021       0x22 /var/folders/w4/s3c6b8t56yb0f0qx4n2cc2f00000gn/T//ccvvHokI.o
 .comment       0x0000000000000021       0x22 /var/folders/w4/s3c6b8t56yb0f0qx4n2cc2f00000gn/T//ccnxy8QU.o
 .comment       0x0000000000000021       0x22 /var/folders/w4/s3c6b8t56yb0f0qx4n2cc2f00000gn/T//ccbbcwrX.o
 .comment       0x0000000000000021       0x22 /var/folders/w4/s3c6b8t56yb0f0qx4n2cc2f00000gn/T//ccjXhJqY.o
 .comment       0x0000000000000021       0x22 /var/folders/w4/s3c6b8t56yb0f0qx4n2cc2f00000gn/T//ccNBgTGZ.o
 .comment       0x0000000000000021       0x22 /var/folders/w4/s3c6b8t56yb0f0qx4n2cc2f00000gn/T//ccSV5cqo.o
